
build/coordinator.elf:     file format elf32-littlearm
build/coordinator.elf
architecture: armv5te, flags 0x00000112:
EXEC_P, HAS_SYMS, D_PAGED
start address 0x00000000

Program Header:
    LOAD off    0x00010000 vaddr 0x00000000 paddr 0x00000000 align 2**16
         filesz 0x000074d0 memsz 0x000074d0 flags r-x
    LOAD off    0x00020000 vaddr 0x00400000 paddr 0x00400000 align 2**16
         filesz 0x00000014 memsz 0x00000944 flags rw-
private flags = 5000200: [Version5 EABI] [soft-float ABI]

Sections:
Idx Name          Size      VMA       LMA       File off  Algn
  0 RO_DATA       000074d0  00000000  00000000  00010000  2**3
                  CONTENTS, ALLOC, LOAD, READONLY, CODE
  1 RW_DATA       00000014  00400000  00400000  00020000  2**2
                  CONTENTS, ALLOC, LOAD, DATA
  2 ZI_DATA       00000930  00400014  00400014  00020014  2**2
                  ALLOC
  3 .debug_info   0001ac41  00000000  00000000  00020014  2**0
                  CONTENTS, READONLY, DEBUGGING
  4 .debug_abbrev 0000358f  00000000  00000000  0003ac55  2**0
                  CONTENTS, READONLY, DEBUGGING
  5 .debug_loc    000089ba  00000000  00000000  0003e1e4  2**0
                  CONTENTS, READONLY, DEBUGGING
  6 .debug_aranges 00000850  00000000  00000000  00046b9e  2**0
                  CONTENTS, READONLY, DEBUGGING
  7 .debug_ranges 00001348  00000000  00000000  000473ee  2**0
                  CONTENTS, READONLY, DEBUGGING
  8 .debug_line   000033be  00000000  00000000  00048736  2**0
                  CONTENTS, READONLY, DEBUGGING
  9 .debug_str    00003796  00000000  00000000  0004baf4  2**0
                  CONTENTS, READONLY, DEBUGGING
 10 .comment      0000006e  00000000  00000000  0004f28a  2**0
                  CONTENTS, READONLY
 11 .ARM.attributes 00000029  00000000  00000000  0004f2f8  2**0
                  CONTENTS, READONLY
 12 .debug_frame  00001d58  00000000  00000000  0004f324  2**2
                  CONTENTS, READONLY, DEBUGGING
SYMBOL TABLE:
00000000 l    d  RO_DATA	00000000 RO_DATA
00400000 l    d  RW_DATA	00000000 RW_DATA
00400014 l    d  ZI_DATA	00000000 ZI_DATA
00000000 l    d  .debug_info	00000000 .debug_info
00000000 l    d  .debug_abbrev	00000000 .debug_abbrev
00000000 l    d  .debug_loc	00000000 .debug_loc
00000000 l    d  .debug_aranges	00000000 .debug_aranges
00000000 l    d  .debug_ranges	00000000 .debug_ranges
00000000 l    d  .debug_line	00000000 .debug_line
00000000 l    d  .debug_str	00000000 .debug_str
00000000 l    d  .comment	00000000 .comment
00000000 l    d  .ARM.attributes	00000000 .ARM.attributes
00000000 l    d  .debug_frame	00000000 .debug_frame
00000000 l    df *ABS*	00000000 sark.o
00000001 l       *ABS*	00000000 GNU
00000000 l       *ABS*	00000000 NULL
80000000 l       *ABS*	00000000 BIT_31
00000001 l       *ABS*	00000000 BUF_WRITE
00000012 l       *ABS*	00000000 NUM_CPUS
00000006 l       *ABS*	00000000 NUM_LINKS
00000000 l       *ABS*	00000000 ITCM_BASE
00008000 l       *ABS*	00000000 ITCM_SIZE
00008000 l       *ABS*	00000000 ITCM_TOP
00400000 l       *ABS*	00000000 DTCM_BASE
00010000 l       *ABS*	00000000 DTCM_SIZE
00410000 l       *ABS*	00000000 DTCM_TOP
70000000 l       *ABS*	00000000 SDRAM_BASE_UNBUF
60000000 l       *ABS*	00000000 SDRAM_BASE_BUF
60000000 l       *ABS*	00000000 SDRAM_BASE
08000000 l       *ABS*	00000000 SDRAM_SIZE
68000000 l       *ABS*	00000000 SDRAM_TOP
f5000000 l       *ABS*	00000000 SYSRAM_BASE_UNBUF
e5000000 l       *ABS*	00000000 SYSRAM_BASE_BUF
e5000000 l       *ABS*	00000000 SYSRAM_BASE
00008000 l       *ABS*	00000000 SYSRAM_SIZE
e5008000 l       *ABS*	00000000 SYSRAM_TOP
f6000000 l       *ABS*	00000000 ROM_BASE
00008000 l       *ABS*	00000000 ROM_SIZE
f6008000 l       *ABS*	00000000 ROM_TOP
10000000 l       *ABS*	00000000 CC_BASE_UNBUF
20000000 l       *ABS*	00000000 CC_BASE_BUF
20000000 l       *ABS*	00000000 CC_BASE
00000000 l       *ABS*	00000000 CC_TCR
00000004 l       *ABS*	00000000 CC_TXDATA
00000008 l       *ABS*	00000000 CC_TXKEY
0000000c l       *ABS*	00000000 CC_RSR
00000010 l       *ABS*	00000000 CC_RXDATA
00000014 l       *ABS*	00000000 CC_RXKEY
00000018 l       *ABS*	00000000 CC_SAR
0000001c l       *ABS*	00000000 CC_TEST
11000000 l       *ABS*	00000000 TIMER_BASE_UNBUF
21000000 l       *ABS*	00000000 TIMER_BASE_BUF
21000000 l       *ABS*	00000000 TIMER_BASE
00000020 l       *ABS*	00000000 TIMER_OFFSET
21000000 l       *ABS*	00000000 TIMER1_BASE
21000020 l       *ABS*	00000000 TIMER2_BASE
00000000 l       *ABS*	00000000 TC_LOAD
00000004 l       *ABS*	00000000 TC_COUNT
00000008 l       *ABS*	00000000 TC_CONTROL
0000000c l       *ABS*	00000000 TC_INT_CLR
00000010 l       *ABS*	00000000 TC_RAW_INT
00000014 l       *ABS*	00000000 TC_MASK_INT
00000018 l       *ABS*	00000000 TC_BG_LOAD
00000000 l       *ABS*	00000000 T1_LOAD
00000004 l       *ABS*	00000000 T1_COUNT
00000008 l       *ABS*	00000000 T1_CONTROL
0000000c l       *ABS*	00000000 T1_INT_CLR
00000010 l       *ABS*	00000000 T1_RAW_INT
00000014 l       *ABS*	00000000 T1_MASK_INT
00000018 l       *ABS*	00000000 T1_BG_LOAD
00000020 l       *ABS*	00000000 T2_LOAD
00000024 l       *ABS*	00000000 T2_COUNT
00000028 l       *ABS*	00000000 T2_CONTROL
0000002c l       *ABS*	00000000 T2_INT_CLR
00000030 l       *ABS*	00000000 T2_RAW_INT
00000034 l       *ABS*	00000000 T2_MASK_INT
00000038 l       *ABS*	00000000 T2_BG_LOAD
1f000000 l       *ABS*	00000000 VIC_BASE_UNBUF
2f000000 l       *ABS*	00000000 VIC_BASE_BUF
2f000000 l       *ABS*	00000000 VIC_BASE
00000000 l       *ABS*	00000000 VIC_IRQST
00000004 l       *ABS*	00000000 VIC_FIQST
00000008 l       *ABS*	00000000 VIC_RAW
0000000c l       *ABS*	00000000 VIC_SELECT
00000010 l       *ABS*	00000000 VIC_ENABLE
00000014 l       *ABS*	00000000 VIC_DISABLE
00000018 l       *ABS*	00000000 VIC_SOFT_SET
0000001c l       *ABS*	00000000 VIC_SOFT_CLR
00000020 l       *ABS*	00000000 VIC_PROTECT
00000030 l       *ABS*	00000000 VIC_VADDR
00000034 l       *ABS*	00000000 VIC_DEFADDR
00000100 l       *ABS*	00000000 VIC_ADDR
00000100 l       *ABS*	00000000 VIC_ADDR0
00000104 l       *ABS*	00000000 VIC_ADDR1
00000108 l       *ABS*	00000000 VIC_ADDR2
0000010c l       *ABS*	00000000 VIC_ADDR3
00000110 l       *ABS*	00000000 VIC_ADDR4
00000114 l       *ABS*	00000000 VIC_ADDR5
00000118 l       *ABS*	00000000 VIC_ADDR6
0000011c l       *ABS*	00000000 VIC_ADDR7
00000120 l       *ABS*	00000000 VIC_ADDR8
00000124 l       *ABS*	00000000 VIC_ADDR9
00000128 l       *ABS*	00000000 VIC_ADDR10
0000012c l       *ABS*	00000000 VIC_ADDR11
00000130 l       *ABS*	00000000 VIC_ADDR12
00000134 l       *ABS*	00000000 VIC_ADDR13
00000138 l       *ABS*	00000000 VIC_ADDR14
0000013c l       *ABS*	00000000 VIC_ADDR15
00000200 l       *ABS*	00000000 VIC_CNTL
00000200 l       *ABS*	00000000 VIC_CNTL0
00000204 l       *ABS*	00000000 VIC_CNTL1
00000208 l       *ABS*	00000000 VIC_CNTL2
0000020c l       *ABS*	00000000 VIC_CNTL3
00000210 l       *ABS*	00000000 VIC_CNTL4
00000214 l       *ABS*	00000000 VIC_CNTL5
00000218 l       *ABS*	00000000 VIC_CNTL6
0000021c l       *ABS*	00000000 VIC_CNTL7
00000220 l       *ABS*	00000000 VIC_CNTL8
00000224 l       *ABS*	00000000 VIC_CNTL9
00000228 l       *ABS*	00000000 VIC_CNTL10
0000022c l       *ABS*	00000000 VIC_CNTL11
00000230 l       *ABS*	00000000 VIC_CNTL12
00000234 l       *ABS*	00000000 VIC_CNTL13
00000238 l       *ABS*	00000000 VIC_CNTL14
0000023c l       *ABS*	00000000 VIC_CNTL15
00000000 l       *ABS*	00000000 WDOG_INT
00000001 l       *ABS*	00000000 SOFTWARE_INT
00000002 l       *ABS*	00000000 COMM_RX_INT
00000003 l       *ABS*	00000000 COMM_TX_INT
00000004 l       *ABS*	00000000 TIMER1_INT
00000005 l       *ABS*	00000000 TIMER2_INT
00000006 l       *ABS*	00000000 CC_RDY_INT
00000007 l       *ABS*	00000000 CC_RPE_INT
00000008 l       *ABS*	00000000 CC_RFE_INT
00000009 l       *ABS*	00000000 CC_TFL_INT
0000000a l       *ABS*	00000000 CC_TOV_INT
0000000b l       *ABS*	00000000 CC_TMT_INT
0000000c l       *ABS*	00000000 DMA_DONE_INT
0000000d l       *ABS*	00000000 DMA_ERR_INT
0000000e l       *ABS*	00000000 DMA_TO_INT
0000000f l       *ABS*	00000000 RTR_DIAG_INT
00000010 l       *ABS*	00000000 RTR_DUMP_INT
00000011 l       *ABS*	00000000 RTR_ERR_INT
00000012 l       *ABS*	00000000 CPU_INT
00000013 l       *ABS*	00000000 ETH_TX_INT
00000014 l       *ABS*	00000000 ETH_RX_INT
00000015 l       *ABS*	00000000 ETH_PHY_INT
00000016 l       *ABS*	00000000 SLOW_CLK_INT
00000017 l       *ABS*	00000000 CC_TNF_INT
00000018 l       *ABS*	00000000 CC_MC_INT
00000019 l       *ABS*	00000000 CC_P2P_INT
0000001a l       *ABS*	00000000 CC_NN_INT
0000001b l       *ABS*	00000000 CC_FR_INT
0000001c l       *ABS*	00000000 INT0_INT
0000001d l       *ABS*	00000000 INT1_INT
0000001e l       *ABS*	00000000 GPIO8_INT
0000001f l       *ABS*	00000000 GPIO9_INT
30000000 l       *ABS*	00000000 DMA_BASE_UNBUF
40000000 l       *ABS*	00000000 DMA_BASE_BUF
40000000 l       *ABS*	00000000 DMA_BASE
00000004 l       *ABS*	00000000 DMA_ADRS
00000008 l       *ABS*	00000000 DMA_ADRT
0000000c l       *ABS*	00000000 DMA_DESC
00000010 l       *ABS*	00000000 DMA_CTRL
00000014 l       *ABS*	00000000 DMA_STAT
00000018 l       *ABS*	00000000 DMA_GCTL
0000001c l       *ABS*	00000000 DMA_CRCC
00000020 l       *ABS*	00000000 DMA_CRCR
00000024 l       *ABS*	00000000 DMA_TMTV
00000028 l       *ABS*	00000000 DMA_SCTL
00000040 l       *ABS*	00000000 DMA_STAT0
00000044 l       *ABS*	00000000 DMA_STAT1
00000048 l       *ABS*	00000000 DMA_STAT2
0000004c l       *ABS*	00000000 DMA_STAT3
00000050 l       *ABS*	00000000 DMA_STAT4
00000054 l       *ABS*	00000000 DMA_STAT5
00000058 l       *ABS*	00000000 DMA_STAT6
0000005c l       *ABS*	00000000 DMA_STAT7
00000104 l       *ABS*	00000000 DMA_AD2S
00000108 l       *ABS*	00000000 DMA_AD2T
0000010c l       *ABS*	00000000 DMA_DES2
00000180 l       *ABS*	00000000 DMA_CRCT
f0000000 l       *ABS*	00000000 PL340_BASE_UNBUF
e0000000 l       *ABS*	00000000 PL340_BASE_BUF
e0000000 l       *ABS*	00000000 PL340_BASE
00000000 l       *ABS*	00000000 MC_STAT
00000004 l       *ABS*	00000000 MC_CMD
00000008 l       *ABS*	00000000 MC_DIRC
0000000c l       *ABS*	00000000 MC_MCFG
00000010 l       *ABS*	00000000 MC_REFP
00000014 l       *ABS*	00000000 MC_CASL
00000018 l       *ABS*	00000000 MC_DQSS
0000001c l       *ABS*	00000000 MC_MRD
00000020 l       *ABS*	00000000 MC_RAS
00000024 l       *ABS*	00000000 MC_RC
00000028 l       *ABS*	00000000 MC_RCD
0000002c l       *ABS*	00000000 MC_RFC
00000030 l       *ABS*	00000000 MC_RP
00000034 l       *ABS*	00000000 MC_RRD
00000038 l       *ABS*	00000000 MC_WR
0000003c l       *ABS*	00000000 MC_WTR
00000040 l       *ABS*	00000000 MC_XP
00000044 l       *ABS*	00000000 MC_XSR
00000048 l       *ABS*	00000000 MC_ESR
0000004c l       *ABS*	00000000 MC_MCFG2
00000050 l       *ABS*	00000000 MC_MCFG3
00000100 l       *ABS*	00000000 MC_QOS0
00000104 l       *ABS*	00000000 MC_QOS1
00000108 l       *ABS*	00000000 MC_QOS2
0000010c l       *ABS*	00000000 MC_QOS3
00000110 l       *ABS*	00000000 MC_QOS4
00000114 l       *ABS*	00000000 MC_QOS5
00000118 l       *ABS*	00000000 MC_QOS6
0000011c l       *ABS*	00000000 MC_QOS7
00000120 l       *ABS*	00000000 MC_QOS8
00000124 l       *ABS*	00000000 MC_QOS9
00000128 l       *ABS*	00000000 MC_QOS10
0000012c l       *ABS*	00000000 MC_QOS11
00000130 l       *ABS*	00000000 MC_QOS12
00000134 l       *ABS*	00000000 MC_QOS13
00000138 l       *ABS*	00000000 MC_QOS14
0000013c l       *ABS*	00000000 MC_QOS15
00000200 l       *ABS*	00000000 MC_CCFG0
00000204 l       *ABS*	00000000 MC_CCFG1
00000208 l       *ABS*	00000000 MC_CCFG2
0000020c l       *ABS*	00000000 MC_CCFG3
00000300 l       *ABS*	00000000 DLL_STATUS
00000304 l       *ABS*	00000000 DLL_CONFIG0
00000308 l       *ABS*	00000000 DLL_CONFIG1
f1000000 l       *ABS*	00000000 RTR_BASE_UNBUF
e1000000 l       *ABS*	00000000 RTR_BASE_BUF
e1000000 l       *ABS*	00000000 RTR_BASE
00000000 l       *ABS*	00000000 RTR_CONTROL
00000004 l       *ABS*	00000000 RTR_STATUS
00000008 l       *ABS*	00000000 RTR_EHDR
0000000c l       *ABS*	00000000 RTR_EKEY
00000010 l       *ABS*	00000000 RTR_EDAT
00000014 l       *ABS*	00000000 RTR_ESTAT
00000018 l       *ABS*	00000000 RTR_DHDR
0000001c l       *ABS*	00000000 RTR_DKEY
00000020 l       *ABS*	00000000 RTR_DDAT
00000024 l       *ABS*	00000000 RTR_DLINK
00000028 l       *ABS*	00000000 RTR_DSTAT
0000002c l       *ABS*	00000000 RTR_DGEN
00000084 l       *ABS*	00000000 RTR_FR
00000200 l       *ABS*	00000000 RTR_DGF0
00000204 l       *ABS*	00000000 RTR_DGF1
00000208 l       *ABS*	00000000 RTR_DGF2
0000020c l       *ABS*	00000000 RTR_DGF3
00000210 l       *ABS*	00000000 RTR_DGF4
00000214 l       *ABS*	00000000 RTR_DGF5
00000218 l       *ABS*	00000000 RTR_DGF6
0000021c l       *ABS*	00000000 RTR_DGF7
00000220 l       *ABS*	00000000 RTR_DGF8
00000224 l       *ABS*	00000000 RTR_DGF9
00000228 l       *ABS*	00000000 RTR_DGF10
0000022c l       *ABS*	00000000 RTR_DGF11
00000230 l       *ABS*	00000000 RTR_DGF12
00000234 l       *ABS*	00000000 RTR_DGF13
00000238 l       *ABS*	00000000 RTR_DGF14
0000023c l       *ABS*	00000000 RTR_DGF15
00000300 l       *ABS*	00000000 RTR_DGC0
00000304 l       *ABS*	00000000 RTR_DGC1
00000308 l       *ABS*	00000000 RTR_DGC2
0000030c l       *ABS*	00000000 RTR_DGC3
00000310 l       *ABS*	00000000 RTR_DGC4
00000314 l       *ABS*	00000000 RTR_DGC5
00000318 l       *ABS*	00000000 RTR_DGC6
0000031c l       *ABS*	00000000 RTR_DGC7
00000320 l       *ABS*	00000000 RTR_DGC8
00000324 l       *ABS*	00000000 RTR_DGC9
00000328 l       *ABS*	00000000 RTR_DGC10
0000032c l       *ABS*	00000000 RTR_DGC11
00000330 l       *ABS*	00000000 RTR_DGC12
00000334 l       *ABS*	00000000 RTR_DGC13
00000338 l       *ABS*	00000000 RTR_DGC14
0000033c l       *ABS*	00000000 RTR_DGC15
00000f00 l       *ABS*	00000000 RTR_TST1
00000f04 l       *ABS*	00000000 RTR_TST2
00002000 l       *ABS*	00000000 P2P_TABLE_SIZE
00000400 l       *ABS*	00000000 MC_TABLE_SIZE
00000018 l       *ABS*	00000000 MC_RAM_WIDTH
00ffffff l       *ABS*	00000000 MC_RAM_MASK
00000008 l       *ABS*	00000000 P2P_EPW
00000003 l       *ABS*	00000000 P2P_LOG_EPW
00000007 l       *ABS*	00000000 P2P_EMASK
00000003 l       *ABS*	00000000 P2P_BPE
00000007 l       *ABS*	00000000 P2P_BMASK
00db6db6 l       *ABS*	00000000 P2P_INIT
e1004000 l       *ABS*	00000000 RTR_MCRAM_BASE
e1005000 l       *ABS*	00000000 RTR_MCRAM_TOP
e1008000 l       *ABS*	00000000 RTR_MCKEY_BASE
e1009000 l       *ABS*	00000000 RTR_MCKEY_TOP
e100c000 l       *ABS*	00000000 RTR_MCMASK_BASE
e100d000 l       *ABS*	00000000 RTR_MCMASK_TOP
e1010000 l       *ABS*	00000000 RTR_P2P_BASE
e1018000 l       *ABS*	00000000 RTR_P2P_TOP
00000020 l       *ABS*	00000000 MC_CAM_WIDTH
f2000000 l       *ABS*	00000000 SYSCTL_BASE_UNBUF
e2000000 l       *ABS*	00000000 SYSCTL_BASE_BUF
e2000000 l       *ABS*	00000000 SYSCTL_BASE
5ec00000 l       *ABS*	00000000 SC_CODE
59111012 l       *ABS*	00000000 CHIP_ID_CODE
00000000 l       *ABS*	00000000 SC_CHIP_ID
00000004 l       *ABS*	00000000 SC_CPU_DIS
00000008 l       *ABS*	00000000 SC_SET_IRQ
0000000c l       *ABS*	00000000 SC_CLR_IRQ
00000010 l       *ABS*	00000000 SC_SET_OK
00000010 l       *ABS*	00000000 SC_CPU_OK
00000014 l       *ABS*	00000000 SC_CLR_OK
00000018 l       *ABS*	00000000 SC_SOFT_RST_L
0000001c l       *ABS*	00000000 SC_HARD_RST_L
00000020 l       *ABS*	00000000 SC_SUBS_RST_L
00000024 l       *ABS*	00000000 SC_SOFT_RST_P
00000028 l       *ABS*	00000000 SC_HARD_RST_P
0000002c l       *ABS*	00000000 SC_SUBS_RST_P
00000030 l       *ABS*	00000000 SC_RST_CODE
00000034 l       *ABS*	00000000 SC_MON_ID
00000038 l       *ABS*	00000000 SC_MISC_CTRL
0000003c l       *ABS*	00000000 GPIO_RES
00000040 l       *ABS*	00000000 GPIO_PORT
00000044 l       *ABS*	00000000 GPIO_DIR
00000048 l       *ABS*	00000000 GPIO_SET
0000004c l       *ABS*	00000000 GPIO_CLR
00000048 l       *ABS*	00000000 GPIO_READ
00000050 l       *ABS*	00000000 SC_PLL1
00000054 l       *ABS*	00000000 SC_PLL2
00000058 l       *ABS*	00000000 SC_FLAG
00000058 l       *ABS*	00000000 SC_SETFLAG
0000005c l       *ABS*	00000000 SC_CLRFLAG
00000060 l       *ABS*	00000000 SC_CLKMUX
00000064 l       *ABS*	00000000 SC_SLEEP
00000068 l       *ABS*	00000000 SC_TS0
0000006c l       *ABS*	00000000 SC_TS1
00000070 l       *ABS*	00000000 SC_TS2
00000080 l       *ABS*	00000000 SC_ARB0
00000100 l       *ABS*	00000000 SC_TAS0
00000180 l       *ABS*	00000000 SC_TAC0
00000200 l       *ABS*	00000000 SC_LINK_DIS
00000000 l       *ABS*	00000000 RST_POR
00000001 l       *ABS*	00000000 RST_WDT
00000002 l       *ABS*	00000000 RST_USER
00000003 l       *ABS*	00000000 RST_SW
00000004 l       *ABS*	00000000 RST_WDI
f3000000 l       *ABS*	00000000 WDOG_BASE_UNBUF
e3000000 l       *ABS*	00000000 WDOG_BASE_BUF
e3000000 l       *ABS*	00000000 WDOG_BASE
00000000 l       *ABS*	00000000 WD_LOAD
00000004 l       *ABS*	00000000 WD_COUNT
00000008 l       *ABS*	00000000 WD_CTRL
0000000c l       *ABS*	00000000 WD_INTCLR
00000010 l       *ABS*	00000000 WD_RAWINT
00000014 l       *ABS*	00000000 WD_MSKINT
00000c00 l       *ABS*	00000000 WD_LOCK
1acce551 l       *ABS*	00000000 WD_CODE
00000001 l       *ABS*	00000000 WD_INT_B
00000002 l       *ABS*	00000000 WD_RST_B
f4000000 l       *ABS*	00000000 ETH_BASE_UNBUF
e4000000 l       *ABS*	00000000 ETH_BASE_BUF
e4000000 l       *ABS*	00000000 ETH_BASE
e4000000 l       *ABS*	00000000 ETH_TX_BASE
00000600 l       *ABS*	00000000 ETH_TX_SIZE
e4000600 l       *ABS*	00000000 ETH_TX_TOP
e4004000 l       *ABS*	00000000 ETH_RX_BASE
00000c00 l       *ABS*	00000000 ETH_RX_SIZE
e4004c00 l       *ABS*	00000000 ETH_RX_TOP
e4008000 l       *ABS*	00000000 ETH_RX_DESC_RAM
e400c000 l       *ABS*	00000000 ETH_REGS
00000000 l       *ABS*	00000000 ETH_CONTROL
00000004 l       *ABS*	00000000 ETH_STATUS
00000008 l       *ABS*	00000000 ETH_TX_LEN
0000000c l       *ABS*	00000000 ETH_TX_CMD
00000010 l       *ABS*	00000000 ETH_RX_CMD
00000014 l       *ABS*	00000000 ETH_MAC_LO
00000018 l       *ABS*	00000000 ETH_MAC_HI
0000001c l       *ABS*	00000000 ETH_PHY_CTRL
00000020 l       *ABS*	00000000 ETH_INT_CLR
00000024 l       *ABS*	00000000 ETH_RX_BUF_RP
0000002c l       *ABS*	00000000 ETH_RX_DESC_RP
00000001 l       *ABS*	00000000 ETH_TX_CLR
00000010 l       *ABS*	00000000 ETH_RX_CLR
00000001 l       *ABS*	00000000 PHY_CTRL_NRST
00000002 l       *ABS*	00000000 PHY_CTRL_DIN
00000004 l       *ABS*	00000000 PHY_CTRL_DOUT
00000008 l       *ABS*	00000000 PHY_CTRL_OE
00000010 l       *ABS*	00000000 PHY_CTRL_CLK
00000000 l       *ABS*	00000000 PKT_MC
00400000 l       *ABS*	00000000 PKT_P2P
00800000 l       *ABS*	00000000 PKT_NN
00a00000 l       *ABS*	00000000 PKT_NND
00c00000 l       *ABS*	00000000 PKT_FR
00020000 l       *ABS*	00000000 PKT_PL
00020000 l       *ABS*	00000000 PKT_MC_PL
00420000 l       *ABS*	00000000 PKT_P2P_PL
00820000 l       *ABS*	00000000 PKT_NN_PL
00c20000 l       *ABS*	00000000 PKT_FR_PL
0000000a l       *ABS*	00000000 CLK_XTAL_MHZ
0007011a l       *ABS*	00000000 PLL_260
0007011e l       *ABS*	00000000 PLL_300
00070121 l       *ABS*	00000000 PLL_330
00070128 l       *ABS*	00000000 PLL_400
00000050 l       *ABS*	00000000 PLL_LOCK_TIME
809488a5 l       *ABS*	00000000 PLL_CLK_SEL
00000020 l       *ABS*	00000000 SERIAL_NCS
00000010 l       *ABS*	00000000 SERIAL_CLK
00000008 l       *ABS*	00000000 SERIAL_SI
00000004 l       *ABS*	00000000 SERIAL_SO
00000038 l       *ABS*	00000000 SERIAL_OE
80000000 l       *ABS*	00000000 SDRAM_TQ
40000000 l       *ABS*	00000000 SDRAM_DPD
20000000 l       *ABS*	00000000 SDRAM_HERE
08000000 l       *ABS*	00000000 JTAG_NTRST
04000000 l       *ABS*	00000000 JTAG_TMS
02000000 l       *ABS*	00000000 JTAG_TDI
01000000 l       *ABS*	00000000 JTAG_TCK
00100000 l       *ABS*	00000000 JTAG_RTCK
00080000 l       *ABS*	00000000 JTAG_TDO
00008000 l       *ABS*	00000000 JTAG_INT
00000001 l       *ABS*	00000000 LED_0
00000010 l       *ABS*	00000000 MODE_USER
00000011 l       *ABS*	00000000 MODE_FIQ
00000012 l       *ABS*	00000000 MODE_IRQ
00000013 l       *ABS*	00000000 MODE_SVC
00000017 l       *ABS*	00000000 MODE_ABT
0000001b l       *ABS*	00000000 MODE_UND
0000001f l       *ABS*	00000000 MODE_SYS
00000020 l       *ABS*	00000000 THUMB_BIT
00000080 l       *ABS*	00000000 IMASK_IRQ
00000040 l       *ABS*	00000000 IMASK_FIQ
000000c0 l       *ABS*	00000000 IMASK_ALL
00000001 l       *ABS*	00000000 SARK_EVENT
00000180 l       *ABS*	00000000 SVC_STACK
00000100 l       *ABS*	00000000 IRQ_STACK
00000100 l       *ABS*	00000000 FIQ_STACK
00000004 l       *ABS*	00000000 NUM_SDP_MSGS
0000000f l       *ABS*	00000000 SARK_SLOT
00000010 l       *ABS*	00000000 INIT_EVENTS
deaddead l       *ABS*	00000000 DEAD_WORD
00000001 l       *ABS*	00000000 APLX_ACOPY
00000002 l       *ABS*	00000000 APLX_RCOPY
00000003 l       *ABS*	00000000 APLX_FILL
00000004 l       *ABS*	00000000 APLX_EXEC
000000ff l       *ABS*	00000000 APLX_END
00000010 l       *ABS*	00000000 APLX_ENTRY_SIZE
00000040 l       *ABS*	00000000 APLX_BUF_SIZE
00007fc0 l       *ABS*	00000000 APLX_BUFFER
000000ff l       *ABS*	00000000 TAG_NONE
00000000 l       *ABS*	00000000 TAG_HOST
00000001 l       *ABS*	00000000 RTR_ALLOC_FIRST
00000400 l       *ABS*	00000000 RTR_ALLOC_LAST
000003ff l       *ABS*	00000000 RTR_ALLOC_MAX
00000001 l       *ABS*	00000000 ALLOC_LOCK
00000002 l       *ABS*	00000000 ALLOC_ID
00000005 l       *ABS*	00000000 A_LOCK_SEMA
00000001 l       *ABS*	00000000 A_RTE_RESET
00000002 l       *ABS*	00000000 A_RTE_UNDEF
00000003 l       *ABS*	00000000 A_RTE_SVC
00000004 l       *ABS*	00000000 A_RTE_PABT
00000005 l       *ABS*	00000000 A_RTE_DABT
00000006 l       *ABS*	00000000 A_RTE_IRQ
00000007 l       *ABS*	00000000 A_RTE_FIQ
00000008 l       *ABS*	00000000 A_RTE_VIC
00000002 l       *ABS*	00000000 A_STATE_RTE
00000006 l       *ABS*	00000000 EVENT_COUNT
00000000 l       *ABS*	00000000 CMD_VER
00000001 l       *ABS*	00000000 CMD_RUN
00000002 l       *ABS*	00000000 CMD_READ
00000003 l       *ABS*	00000000 CMD_WRITE
00000004 l       *ABS*	00000000 CMD_APLX
00000005 l       *ABS*	00000000 CMD_FILL
00000010 l       *ABS*	00000000 CMD_REMAP
00000011 l       *ABS*	00000000 CMD_LINK_READ
00000012 l       *ABS*	00000000 CMD_LINK_WRITE
00000013 l       *ABS*	00000000 CMD_AR
00000014 l       *ABS*	00000000 CMD_NNP
00000016 l       *ABS*	00000000 CMD_SIG
00000017 l       *ABS*	00000000 CMD_FFD
00000018 l       *ABS*	00000000 CMD_AS
00000019 l       *ABS*	00000000 CMD_LED
0000001a l       *ABS*	00000000 CMD_IPTAG
0000001b l       *ABS*	00000000 CMD_SROM
0000001c l       *ABS*	00000000 CMD_ALLOC
0000001d l       *ABS*	00000000 CMD_RTR
0000001f l       *ABS*	00000000 CMD_INFO
00000040 l       *ABS*	00000000 CMD_TUBE
00000080 l       *ABS*	00000000 RC_OK
00000081 l       *ABS*	00000000 RC_LEN
00000082 l       *ABS*	00000000 RC_SUM
00000083 l       *ABS*	00000000 RC_CMD
00000084 l       *ABS*	00000000 RC_ARG
00000085 l       *ABS*	00000000 RC_PORT
00000086 l       *ABS*	00000000 RC_TIMEOUT
00000087 l       *ABS*	00000000 RC_ROUTE
00000088 l       *ABS*	00000000 RC_CPU
00000089 l       *ABS*	00000000 RC_DEAD
0000008a l       *ABS*	00000000 RC_BUF
0000008b l       *ABS*	00000000 RC_P2P_NOREPLY
0000008c l       *ABS*	00000000 RC_P2P_REJECT
0000008d l       *ABS*	00000000 RC_P2P_BUSY
0000008e l       *ABS*	00000000 RC_P2P_TIMEOUT
0000008f l       *ABS*	00000000 RC_PKT_TX
00000000 l       *ABS*	00000000 TYPE_BYTE
00000001 l       *ABS*	00000000 TYPE_HALF
00000002 l       *ABS*	00000000 TYPE_WORD
00000008 l       *ABS*	00000000 NUM_SDP_PORTS
00000005 l       *ABS*	00000000 PORT_SHIFT
000000e0 l       *ABS*	00000000 PORT_MASK
0000001f l       *ABS*	00000000 CPU_MASK
000000ff l       *ABS*	00000000 PORT_ETH
00000100 l       *ABS*	00000000 SDP_BUF_SIZE
00000080 l       *ABS*	00000000 VCPU_SIZE
0000002c l       *ABS*	00000000 VCPU_RT_CODE
0000002e l       *ABS*	00000000 VCPU_CPU_STATE
0000002f l       *ABS*	00000000 VCPU_APP_ID
0000001c l       *ABS*	00000000 SARK_MSG_INT
0000001d l       *ABS*	00000000 SARK_SIG_INT
00000000 l       *ABS*	00000000 SARK_VIRT_CPU
00000008 l       *ABS*	00000000 SARK_RANDOM
00000030 l       *ABS*	00000000 SARK_CPU_CLK
00000020 l       *ABS*	00000000 SV_SSIZE
00000060 l       *ABS*	00000000 SV_USIZE
00000080 l       *ABS*	00000000 SV_ISIZE
00000020 l       *ABS*	00000000 SV_VSIZE
00000040 l       *ABS*	00000000 SV_RSIZE
00001000 l       *ABS*	00000000 SV_SIZE
e5007fe0 l       *ABS*	00000000 SV_SROM
e5007f80 l       *ABS*	00000000 SV_UBASE
e5007f00 l       *ABS*	00000000 SV_IBASE
e5007f00 l       *ABS*	00000000 SV_SV
00000100 l       *ABS*	00000000 SYS_BOOT
e5007000 l       *ABS*	00000000 SYS_USER_TOP
e5000100 l       *ABS*	00000000 SYS_USER_BASE
e5007ee0 l       *ABS*	00000000 SV_VECTORS
e5007ea0 l       *ABS*	00000000 SV_RANDOM
e5007000 l       *ABS*	00000000 SV_VCPU
e5007900 l       *ABS*	00000000 SV_SPARE
000005a0 l       *ABS*	00000000 SPARE_SIZE
e5007fe0 l       *ABS*	00000000 SROM_FLAG_BASE
e5007f80 l       *ABS*	00000000 STATUS_MAP_BASE
e5007ee0 l       *ABS*	00000000 RST_BLOCK_BASE
00008000 l       *ABS*	00000000 SRF_PRESENT
000000f0 l       *ABS*	00000000 SRF_HW_VER
00000008 l       *ABS*	00000000 SRF_PHY_INIT
00000004 l       *ABS*	00000000 SRF_PHY_RST
00000002 l       *ABS*	00000000 SRF_PHY_WAIT
00000001 l       *ABS*	00000000 SRF_ETH
00000000 l       *ABS*	00000000 SRF_NONE
00000020 l       RO_DATA	00000000 reset_vec
00000004 l       RO_DATA	00000000 undef
00000024 l       RO_DATA	00000000 undef_vec
00000028 l       RO_DATA	00000000 svc_vec
0000002c l       RO_DATA	00000000 pabt_vec
00000030 l       RO_DATA	00000000 dabt_vec
0000003c l       RO_DATA	00000000 fiq_vec
00000078 l       RO_DATA	00000000 reset_entry
000000d8 l       RO_DATA	00000000 undef_error
000000e0 l       RO_DATA	00000000 svc_error
000000e8 l       RO_DATA	00000000 pabt_error
000000f0 l       RO_DATA	00000000 dabt_error
00000034 l       RO_DATA	00000000 aplx_proc
00000038 l       RO_DATA	00000000 irq_vec
000000f8 l       RO_DATA	00000000 irq_error
00000100 l       RO_DATA	00000000 fiq_error
00000040 l       RO_DATA	00000000 svc_stack
00000042 l       RO_DATA	00000000 irq_stack
00000044 l       RO_DATA	00000000 fiq_stack
00000046 l       RO_DATA	00000000 stack_size
00000048 l       RO_DATA	00000000 code_top
0000004c l       RO_DATA	00000000 heap_base
00000050 l       RO_DATA	00000000 stack_top
00000054 l       RO_DATA	00000000 stack_fill
00000058 l       RO_DATA	00000000 num_msgs
00000059 l       RO_DATA	00000000 sark_slot
0000005a l       RO_DATA	00000000 num_events
0000005b l       RO_DATA	00000000 api
0000005c l       RO_DATA	00000000 app_id
0000005d l       RO_DATA	00000000 app_flags
0000005e l       RO_DATA	00000000 __PAD
00000060 l       RO_DATA	00000000 event_vec
000000d0 l       RO_DATA	00000000 reset_error
00000114 l       RO_DATA	00000000 exc_error
00000138 l       RO_DATA	00000000 cc_error
000001fc l       RO_DATA	00000000 lg1
00000238 l       RO_DATA	00000000 ws1
00000298 l       RO_DATA	00000000 wc2
00000280 l       RO_DATA	00000000 wc1
000002c4 l       RO_DATA	00000000 delay1
0000038c l       RO_DATA	00000000 aplx_buffer
00000390 l       RO_DATA	00000000 aplx_loader
0000037c l       RO_DATA	00000000 aplx_l0
000003a8 l       RO_DATA	00000000 aplx_copy
000003a4 l       RO_DATA	00000000 aplx_rcopy
000003b6 l       RO_DATA	00000000 aplx_fill
000003c6 l       RO_DATA	00000000 aplx_exec
000003bc l       RO_DATA	00000000 aplx_l1
00000000 l    df *ABS*	00000000 sark_base.c
00000000 l    df *ABS*	00000000 sark_event.c
00000000 l    df *ABS*	00000000 sark_timer.c
00000000 l    df *ABS*	00000000 sark_hw.c
00000000 l    df *ABS*	00000000 sark_isr.c
00000000 l    df *ABS*	00000000 sark_alloc.c
00000000 l    df *ABS*	00000000 sark_io.c
00004e58 l     F RO_DATA	00000040 io_buf_init
00004fcc l     F RO_DATA	000000c4 io_put_fixed
00400208 l     O ZI_DATA	00000004 io_msg
00007358 l     O RO_DATA	00000011 hex
0040020c l     O ZI_DATA	00000004 io_buf
00400210 l     O ZI_DATA	00000004 buf_ptr
00400214 l     O ZI_DATA	00000004 sp_ptr
00000000 l    df *ABS*	00000000 sark_pkt.c
00000000 l    df *ABS*	00000000 sark_div0.c
00000000 l    df *ABS*	00000000 coordinator.c
00400000 l     O RW_DATA	00000004 recording_flags
00400014 l     O ZI_DATA	00000004 time
00400028 l     O ZI_DATA	00000004 simulation_ticks
0040002c l     O ZI_DATA	00000004 infinite_run
00000000 l    df *ABS*	00000000 data_specification.c
00000000 l    df *ABS*	00000000 simulation.c
00003344 l     F RO_DATA	000000a8 _execute_provenance_storage
00400038 l     O ZI_DATA	00000004 pointer_to_simulation_time
0040003c l     O ZI_DATA	00000004 stored_provenance_function
00400040 l     O ZI_DATA	00000004 stored_exit_function
00400044 l     O ZI_DATA	00000004 stored_resume_function
00400048 l     O ZI_DATA	00000004 stored_provenance_data_address
0040004c l     O ZI_DATA	00000004 pointer_to_infinite_run
00400050 l     O ZI_DATA	00000040 dma_complete_callbacks
00400090 l     O ZI_DATA	00000020 sdp_callback
00000000 l    df *ABS*	00000000 recording.c
00003828 l     F RO_DATA	00000060 compute_available_space_in_channel
00003888 l     F RO_DATA	0000004c _create_buffer_message
0000393c l     F RO_DATA	000000ac _buffering_in_handler
000039e8 l     F RO_DATA	000000a4 _recording_write
004000b0 l     O ZI_DATA	00000004 n_recording_regions
004000b4 l     O ZI_DATA	00000004 req_hdr
004000b8 l     O ZI_DATA	00000004 time_between_triggers
004000bc l     O ZI_DATA	00000004 sdp_port
004000c0 l     O ZI_DATA	00000004 dma_complete_buffer
004000c4 l     O ZI_DATA	00000004 region_addresses
004000c8 l     O ZI_DATA	00000124 msg
004001ec l     O ZI_DATA	00000004 last_sequence_number
004001f0 l     O ZI_DATA	00000004 region_sizes
004001f4 l     O ZI_DATA	00000004 buffer_size_before_trigger
004001f8 l     O ZI_DATA	00000004 sequence_number
004001fc l     O ZI_DATA	00000004 g_recording_channels
00400200 l     O ZI_DATA	00000004 last_time_buffering_trigger
00400204 l     O ZI_DATA	00000004 data_ptr
00000000 l    df *ABS*	00000000 circular_buffer.c
00000000 l    df *ABS*	00000000 spin1_api.c
00400218 l     O ZI_DATA	00000004 timer_phase
0040021c l     O ZI_DATA	00000004 resume_sync
00400220 l     O ZI_DATA	00000004 timer_tick
00400224 l     O ZI_DATA	00000004 paused
0040022c l     O ZI_DATA	00000320 task_queue
0040054c l     O ZI_DATA	00000004 run
00000000 l    df *ABS*	00000000 spin1_isr.c
00000000 l    df *ABS*	00000000 itoa.c
00000000 l    df *ABS*	00000000 memcpy-stub.c
00000000 l    df *ABS*	00000000 utoa.c
00000000 l    df *ABS*	00000000 _udivsi3.o
00006308 l       RO_DATA	00000000 .udivsi3_skip_div0_test
00000000 l    df *ABS*	00000000 coordinator_build.c
00006420 l     F RO_DATA	00000008 __spin1_pause_from_arm
00006428 l     F RO_DATA	00000008 __spin1_msg_free_from_arm
00006430 l     F RO_DATA	00000008 __sark_msg_free_from_arm
00006438 l     F RO_DATA	00000008 __spin1_send_sdp_msg_from_arm
00006440 l     F RO_DATA	00000008 __spin1_exit_from_arm
00006448 l     F RO_DATA	00000008 __spin1_start_paused_from_arm
00000b28 g     F RO_DATA	0000023c forward_string
00400034 g     O ZI_DATA	00000004 TCM_dict_exhausted
00400690 g     O ZI_DATA	00000004 old_vector
000001e8 g     F RO_DATA	00000000 sark_lock_get
00005c38 g     F RO_DATA	00000030 sark_pre_main
0000255c g     F RO_DATA	00000094 count_function_start
00000fac g     F RO_DATA	000001fc send_function_signal
00004624 g     F RO_DATA	00000034 sark_shmsg_get
00005b88 g     F RO_DATA	0000000c spin1_get_core_id
00003c6c g     F RO_DATA	0000006c _recording_buffer_state_data_write
00005d24 g     F RO_DATA	00000074 cc_fr_ready_isr
000001b8 g     F RO_DATA	00000000 spin1_int_enable
000008c4 g     F RO_DATA	00000264 send_string
00000040 g       *ABS*	00000000 RO_FROM
00000800 g       *ABS*	00000000 STACK_SIZE
00000362 g     F RO_DATA	00000000 sark_bx
00004d90 g     F RO_DATA	000000a8 sark_xfree
00005344 g     F RO_DATA	00000008 spin1_msg_free
00003750 g     F RO_DATA	000000d8 simulation_initialise
000056d4 g     F RO_DATA	0000008c spin1_callback_on
00000258 g     F RO_DATA	00000000 sark_msg_cpy
00005a74 g     F RO_DATA	00000012 spin1_memcpy
00004bbc g     F RO_DATA	0000003c event_alloc
00005798 g     F RO_DATA	0000006c clean_up
000015ec g     F RO_DATA	00000120 index_leader_awaits_reports
000045b4 g     F RO_DATA	0000001e sark_block_init
00005f60 g     F RO_DATA	00000088 timer1_isr
00000504 g     F RO_DATA	00000058 search_dictionary_with_id
00004c88 g     F RO_DATA	00000028 sark_fiq_han
00000010 g       *ABS*	00000000 APLX_ENTRY
00004604 g     F RO_DATA	00000020 sark_msg_free
00400550 g     O ZI_DATA	00000004 key_values
00006028 g     F RO_DATA	00000068 soft_int_isr
00005b78 g     F RO_DATA	0000000e spin1_send_mc_packet
00005354 g     F RO_DATA	00000028 configure_dma_controller
00000798 g     F RO_DATA	00000070 search_dict_item_in_SDRAM
00002fec g     F RO_DATA	00000274 c_main
00000414 g     F RO_DATA	000000f0 search_dictionary
00003dc4 g     F RO_DATA	00000120 recording_reset
000049b0 g     F RO_DATA	00000170 sark_int
000053b0 g     F RO_DATA	0000016c configure_vic
00000300 g     F RO_DATA	00000000 sark_int_han
00004b20 g     F RO_DATA	00000058 event_wait
00001a00 g     F RO_DATA	00000044 index_collect_string_message
0000613c g     F RO_DATA	000000f0 memcpy
00002d90 g     F RO_DATA	00000188 record_sdram_dict
000003cc g     F RO_DATA	00000014 resume_callback
0000499c g     F RO_DATA	00000014 sark_wait
000001d8 g     F RO_DATA	00000000 spin1_mode_restore
000001a8 g     F RO_DATA	00000000 spin1_irq_disable
0000498c g     F RO_DATA	00000010 sark_cmd_fill
00004bf8 g     F RO_DATA	00000050 sark_vic_init
00005ee8 g     F RO_DATA	00000078 dma_done_fiqsr
00400554 g     O ZI_DATA	00000004 dictionary
00006308 g     F RO_DATA	000000f4 .hidden __udivsi3
0000016c g     F RO_DATA	00000000 cpu_shutdown
000001d8 g     F RO_DATA	00000000 cpu_int_restore
00400558 g     O ZI_DATA	00000004 sum
00400694 g     O ZI_DATA	00000048 diagnostics
00410000 g       *ABS*	00000000 STACK_TOP
000041e4 g     F RO_DATA	0000020c recording_do_timestep_update
00400944 g       ZI_DATA	00000000 HEAP_BASE
00004cb0 g     F RO_DATA	000000c8 sark_xalloc
00000d64 g     F RO_DATA	00000040 verify_signal
00003448 g     F RO_DATA	00000038 _send_ok_response
004006dc g     O ZI_DATA	00000004 old_enable
00006138 g     F RO_DATA	00000004 itoa
0000537c g     F RO_DATA	00000034 configure_timer1
0000170c g     F RO_DATA	000001b4 index_manage_proxy_leader
00001a44 g     F RO_DATA	00000280 histogram_start_function
00003a8c g     F RO_DATA	000001d8 recording_record_and_notify
00003cd8 g     F RO_DATA	000000ec recording_finalise
00000364 g     F RO_DATA	00000000 __gnu_thumb1_case_uqi
004006e0 g     O ZI_DATA	00000004 user_arg1
00004658 g     F RO_DATA	00000024 sark_shmsg_free
00000334 g     F RO_DATA	00000000 schedule
00005dd0 g     F RO_DATA	00000088 cc_tx_empty_isr
00002c48 g     F RO_DATA	00000148 record_tcm_dict
0040055c g     O ZI_DATA	00000004 end_of_dict
00400560 g     O ZI_DATA	00000004 forward_mode_on
0000012c g     F RO_DATA	00000000 rt_error
000026d4 g     F RO_DATA	000001d0 retrieve_header_data
00002b00 g     F RO_DATA	00000148 record_unqiue_items
00005cec g     F RO_DATA	00000038 cc_rx_ready_fiqsr
00005b94 g     F RO_DATA	0000000c spin1_get_chip_id
00001cc4 g     F RO_DATA	000003cc histogram_leader_next_step
0040000c g     O RW_DATA	00000004 fr_pkt_prio
00004590 g     F RO_DATA	00000010 sark_cpu_state
00400228 g     O ZI_DATA	00000001 user_pending
000059b8 g     F RO_DATA	0000000c spin1_start_paused
000003e0 g     F RO_DATA	0000001c return_mem_address
00000808 g     F RO_DATA	00000068 compare_two_strings
00400008 g     O RW_DATA	00000004 mc_pkt_prio
00400564 g     O ZI_DATA	00000004 time_out_block_start
00005c68 g     F RO_DATA	0000000a sark_post_main
00007500 g       *ABS*	00000000 RW_FROM
000001a8 g     F RO_DATA	00000000 cpu_irq_disable
00400568 g     O ZI_DATA	00000004 in_charge
000060e0 g     F RO_DATA	00000058 __itoa
00000000 g       RO_DATA	00000000 cpu_reset
000002d0 g     F RO_DATA	00000000 sark_div10
0000534c g     F RO_DATA	00000008 spin1_send_sdp_msg
0000267c g     F RO_DATA	00000058 send_state
00000108 g       RO_DATA	00000000 vic_error
00400000 g       *ABS*	00000000 DTCM_BASE
00002fc0 g     F RO_DATA	0000002c record_int_entry
000059c4 g     F RO_DATA	00000008 spin1_delay_us
0000342c g     F RO_DATA	0000001c simulation_handle_pause_resume
000043f0 g     F RO_DATA	000000e4 circular_buffer_initialize
0000691c g     O RO_DATA	0000000c build_name
00400004 g     O RW_DATA	00000004 runtime
00004e98 g     F RO_DATA	00000048 sark_io_buf_reset
000023a8 g     F RO_DATA	000001b4 receive_data
00000360  w    F RO_DATA	00000000 sark_config
00005594 g     F RO_DATA	0000002c spin1_resume
000003fc g     F RO_DATA	00000018 iobuf_data
00004b78 g     F RO_DATA	0000002c event_pause
00006928 g     O RO_DATA	00000004 build_date
0000152c g     F RO_DATA	000000c0 start_processing
00000870 g     F RO_DATA	00000054 find_instance_of
0000020c g     F RO_DATA	00000000 sark_lock_free
00004d78 g     F RO_DATA	00000018 sark_alloc
00400018 g     O ZI_DATA	00000004 SDRAM_num_elements
00400000 g       *ABS*	00000000 RW_BASE
00005a88 g     F RO_DATA	000000f0 spin1_send_packet
00000014 g       ZI_DATA	00000000 RW_LENGTH
00006090 g     F RO_DATA	00000050 soft_int_fiqsr
000055e8 g     F RO_DATA	000000ec dispatch
00000190 g     F RO_DATA	00000000 cpu_init_mode
0040056c g     O ZI_DATA	00000004 time_out_block_end
00000268 g     F RO_DATA	00000000 sark_word_cpy
00000040 g       *ABS*	00000000 APLX_SIZE
0000017c g     F RO_DATA	00000000 cpu_sleep
00005338 g     F RO_DATA	00000008 __aeabi_ldiv0
00400010 g     O RW_DATA	00000004 fiq_event
004006e4 g     O ZI_DATA	00000001 leadAp
004005bc g     O ZI_DATA	0000003c sark
000047d8 g     F RO_DATA	0000009c sark_msg_send
000001e0 g     F RO_DATA	00000000 spin1_wfi
00004874 g     F RO_DATA	00000050 sark_cmd_ver
000011a8 g     F RO_DATA	00000384 index_initialise_index
0000622c g     F RO_DATA	000000dc __utoa
00400570 g     O ZI_DATA	00000004 current_item
000001e0 g     F RO_DATA	00000000 cpu_wfi
00004ba4 g     F RO_DATA	00000018 event_stop
00004564 g     F RO_DATA	00000020 circular_buffer_size
00003260 g     F RO_DATA	00000044 data_specification_get_data_address
00005550 g     F RO_DATA	00000044 resume
000001c8 g     F RO_DATA	00000000 cpu_int_disable
00004c48 g     F RO_DATA	00000040 sark_vic_set
00004e38 g     F RO_DATA	0000001e sark_heap_init
00005d98 g     F RO_DATA	00000038 cc_fr_ready_fiqsr
00006308 g     F RO_DATA	00000000 .hidden __aeabi_uidiv
00005760 g     F RO_DATA	00000024 spin1_exit
00002f18 g     F RO_DATA	000000a8 record_string_entry
004005f8 g     O ZI_DATA	00000098 event
00400020 g     O ZI_DATA	00000004 alive_states_recieved_this_tick
00006450 g       RO_DATA	00000000 __init_array_end
00003338 g     F RO_DATA	0000000c data_specification_get_region
00004926 g     F RO_DATA	00000066 sark_cmd_write
00005c74 g     F RO_DATA	00000078 cc_rx_ready_isr
00005ba0 g     F RO_DATA	0000000a spin1_malloc
0000551c g     F RO_DATA	00000034 spin1_pause
000036e0 g     F RO_DATA	00000070 simulation_dma_transfer_done_callback_on
00004698  w    F RO_DATA	00000140 sark_init
00400024 g     O ZI_DATA	00000004 dead_states_recieved_this_tick
00004584  w    F RO_DATA	0000000c rte_handler
00000374 g     F RO_DATA	00000000 sark_aplx
00005804 g     F RO_DATA	00000078 report_debug
00400574 g     O ZI_DATA	00000004 global_max_id
00005090 g     F RO_DATA	000002a8 io_printf
004006e8 g     O ZI_DATA	00000148 dma_queue
00000234 g     F RO_DATA	00000000 sark_word_set
00400830 g     O ZI_DATA	00000004 old_select
00000da4 g     F RO_DATA	00000208 send_signal
00400030 g     O ZI_DATA	00000004 my_state
00003480 g     F RO_DATA	00000214 _simulation_control_scp_callback
0000587c g     F RO_DATA	00000048 report_warns
00004528 g     F RO_DATA	0000003c circular_buffer_get_next
00400578 g     O ZI_DATA	00000004 reported_ready
00005e58 g     F RO_DATA	00000090 dma_done_isr
0040057c g     O ZI_DATA	00000018 local_index
00400834 g     O ZI_DATA	00000004 ticks
00000698 g     F RO_DATA	00000100 write_dict_item_to_SDRAM
000038d4 g     F RO_DATA	00000068 _recording_dma_finished
00000330 g     F RO_DATA	00000000 null_int_han
000059cc g     F RO_DATA	000000a8 spin1_dma_transfer
00005bac g     F RO_DATA	0000008c schedule_sysmode
00400594 g     O ZI_DATA	0000001c header
00003694 g     F RO_DATA	0000004c simulation_sdp_callback_on
000033ec g     F RO_DATA	0000001c _simulation_sdp_callback_handler
00003428 g     F RO_DATA	00000004 simulation_run
00005fe8 g     F RO_DATA	00000040 timer1_fiqsr
004005b0 g     O ZI_DATA	00000004 current_id
00003408 g     F RO_DATA	00000020 _simulation_dma_transfer_done_callback
000044d4 g     F RO_DATA	00000054 circular_buffer_add
00000220 g     F RO_DATA	00000000 sark_str_cpy
000063fc g     F RO_DATA	00000020 .hidden __aeabi_uidivmod
000055c0 g     F RO_DATA	00000028 resume_wait
00400014 g       *ABS*	00000000 ZI_BASE
00000000 g       *ABS*	00000000 RO_BASE
000001b8 g     F RO_DATA	00000000 cpu_int_enable
004005b4 g     O ZI_DATA	00000004 linked_list_length
000025f0 g     F RO_DATA	0000008c count_function_receive
00400838 g     O ZI_DATA	00000004 user_arg0
000045a0 g     F RO_DATA	00000014 sark_app_lead
00002090 g     F RO_DATA	000001d4 histogram_receive
004005b8 g     O ZI_DATA	00000004 current_leader
00000000 g       *ABS*	00000000 ITCM_BASE
00003c64 g     F RO_DATA	00000008 recording_record
00002264 g     F RO_DATA	00000144 histogram_synchronise_entries
000058c4 g     F RO_DATA	000000f4 start
000028a4 g     F RO_DATA	0000025c update
00006450 g       RO_DATA	00000000 __init_array_start
00005340 g     F RO_DATA	00000004 __aeabi_idiv0
0040083c g     O ZI_DATA	00000040 callback
00005784 g     F RO_DATA	00000014 spin1_set_timer_tick_and_phase
0000467c g     F RO_DATA	0000001c sark_call_cpp_constructors
00004ee0 g     F RO_DATA	000000ec io_put_char
0040001c g     O ZI_DATA	00000004 SDRAM_next_slot
000018c0 g     F RO_DATA	00000140 index_receive
000032a4 g     F RO_DATA	00000094 data_specification_read_header
0000055c g     F RO_DATA	0000013c add_item_to_dictionary
000001c8 g     F RO_DATA	00000000 spin1_int_disable
000048c4 g     F RO_DATA	00000062 sark_cmd_read
00003ee4 g     F RO_DATA	00000300 recording_initialize
00000930 g       *ABS*	00000000 ZI_LENGTH
000074d0 g       RW_DATA	00000000 RO_LENGTH
000045d4 g     F RO_DATA	00000030 sark_msg_get
000002bc g     F RO_DATA	00000000 sark_delay_us
0040087c g     O ZI_DATA	000000c8 tx_packet_queue



Disassembly of section RO_DATA:

00000000 <cpu_reset>:
       0:	e59ff018 	ldr	pc, [pc, #24]	; 20 <reset_vec>

00000004 <undef>:
       4:	e59ff018 	ldr	pc, [pc, #24]	; 24 <undef_vec>
       8:	e59ff018 	ldr	pc, [pc, #24]	; 28 <svc_vec>
       c:	e59ff018 	ldr	pc, [pc, #24]	; 2c <pabt_vec>
      10:	e59ff018 	ldr	pc, [pc, #24]	; 30 <dabt_vec>
      14:	ebfffffa 	bl	4 <undef>
      18:	e51ffff0 	ldr	pc, [pc, #-4080]	; fffff030 <ROM_TOP+0x9ff7030>
      1c:	e59ff018 	ldr	pc, [pc, #24]	; 3c <fiq_vec>

00000020 <reset_vec>:
      20:	00000078 	.word	0x00000078

00000024 <undef_vec>:
      24:	000000d8 	.word	0x000000d8

00000028 <svc_vec>:
      28:	000000e0 	.word	0x000000e0

0000002c <pabt_vec>:
      2c:	000000e8 	.word	0x000000e8

00000030 <dabt_vec>:
      30:	000000f0 	.word	0x000000f0

00000034 <aplx_proc>:
      34:	00000375 	.word	0x00000375

00000038 <irq_vec>:
      38:	000000f8 	.word	0x000000f8

0000003c <fiq_vec>:
      3c:	00000100 	.word	0x00000100

00000040 <svc_stack>:
      40:	0060      	.short	0x0060

00000042 <irq_stack>:
      42:	0040      	.short	0x0040

00000044 <fiq_stack>:
      44:	0040      	.short	0x0040

00000046 <stack_size>:
      46:	0800      	.short	0x0800

00000048 <code_top>:
      48:	000074d0 	.word	0x000074d0

0000004c <heap_base>:
      4c:	00400944 	.word	0x00400944

00000050 <stack_top>:
      50:	00410000 	.word	0x00410000

00000054 <stack_fill>:
      54:	deaddead 	.word	0xdeaddead

00000058 <num_msgs>:
      58:	04          	.byte	0x04

00000059 <sark_slot>:
      59:	0f          	.byte	0x0f

0000005a <num_events>:
      5a:	10          	.byte	0x10

0000005b <api>:
	...

0000005c <app_id>:
	...

0000005d <app_flags>:
	...

0000005e <__PAD>:
	...

00000060 <event_vec>:
	...

00000078 <reset_entry>:
      78:	e24f1060 	sub	r1, pc, #96	; 0x60
      7c:	e1c103bc 	strh	r0, [r1, #60]	; 0x3c
      80:	e28f0048 	add	r0, pc, #72	; 0x48
      84:	e5810000 	str	r0, [r1]
      88:	e59f00f4 	ldr	r0, [pc, #244]	; 184 <DMA_CRCT+0x4>
      8c:	ee010f10 	mcr	15, 0, r0, cr1, cr0, {0}
      90:	e321f0d3 	msr	CPSR_c, #211	; 0xd3
      94:	e3a0d902 	mov	sp, #32768	; 0x8000
      98:	fa0000b0 	blx	360 <sark_config>
      9c:	e51fd054 	ldr	sp, [pc, #-84]	; 50 <stack_top>
      a0:	e15f26b2 	ldrh	r2, [pc, #-98]	; 46 <stack_size>
      a4:	e51f1058 	ldr	r1, [pc, #-88]	; 54 <stack_fill>
      a8:	e04d0002 	sub	r0, sp, r2
      ac:	eb000060 	bl	234 <sark_word_set>
      b0:	e1a0000d 	mov	r0, sp
      b4:	fa001177 	blx	4698 <sark_init>
      b8:	e121f000 	msr	CPSR_c, r0
      bc:	fa001236 	blx	499c <sark_wait>
      c0:	fa0016dc 	blx	5c38 <sark_pre_main>
      c4:	eb000bc8 	bl	2fec <c_main>
      c8:	fa0016e6 	blx	5c68 <sark_post_main>
      cc:	eb00002a 	bl	17c <cpu_sleep>

000000d0 <reset_error>:
      d0:	e3a00001 	mov	r0, #1
      d4:	ea000014 	b	12c <rt_error>

000000d8 <undef_error>:
      d8:	e3a0b002 	mov	fp, #2
      dc:	ea00000c 	b	114 <exc_error>

000000e0 <svc_error>:
      e0:	e3a0b003 	mov	fp, #3
      e4:	ea00000a 	b	114 <exc_error>

000000e8 <pabt_error>:
      e8:	e3a0b004 	mov	fp, #4
      ec:	ea000008 	b	114 <exc_error>

000000f0 <dabt_error>:
      f0:	e3a0b005 	mov	fp, #5
      f4:	ea000006 	b	114 <exc_error>

000000f8 <irq_error>:
      f8:	e3a0b006 	mov	fp, #6
      fc:	ea000004 	b	114 <exc_error>

00000100 <fiq_error>:
     100:	e3a0b007 	mov	fp, #7
     104:	ea000002 	b	114 <exc_error>

00000108 <vic_error>:
     108:	e3a0b008 	mov	fp, #8
     10c:	e3a0042f 	mov	r0, #788529152	; 0x2f000000
     110:	e5900030 	ldr	r0, [r0, #48]	; 0x30

00000114 <exc_error>:
     114:	e1a0a00e 	mov	sl, lr
     118:	e14f8000 	mrs	r8, SPSR
     11c:	e38890c0 	orr	r9, r8, #192	; 0xc0
     120:	e3c99020 	bic	r9, r9, #32
     124:	e12ff009 	msr	CPSR_fsxc, r9
     128:	ea000002 	b	138 <cc_error>

0000012c <rt_error>:
     12c:	e1a0b000 	mov	fp, r0
     130:	e10f8000 	mrs	r8, CPSR
     134:	e1a0a00e 	mov	sl, lr

00000138 <cc_error>:
     138:	e59fc048 	ldr	ip, [pc, #72]	; 188 <DMA_CRCT+0x8>
     13c:	e59cc000 	ldr	ip, [ip]
     140:	e3a09080 	mov	r9, #128	; 0x80
     144:	e59fe040 	ldr	lr, [pc, #64]	; 18c <DMA_CRCT+0xc>
     148:	e02ee99c 	mla	lr, ip, r9, lr
     14c:	e1a0900d 	mov	r9, sp
     150:	e88e07ff 	stm	lr, {r0, r1, r2, r3, r4, r5, r6, r7, r8, r9, sl}
     154:	e5ceb02c 	strb	fp, [lr, #44]	; 0x2c
     158:	e3a08002 	mov	r8, #2
     15c:	e5ce802e 	strb	r8, [lr, #46]	; 0x2e
     160:	e1a0000b 	mov	r0, fp
     164:	e321f0d3 	msr	CPSR_c, #211	; 0xd3
     168:	fa001105 	blx	4584 <rte_handler>

0000016c <cpu_shutdown>:
     16c:	e321f0d3 	msr	CPSR_c, #211	; 0xd3
     170:	e3a0042f 	mov	r0, #788529152	; 0x2f000000
     174:	e3e01000 	mvn	r1, #0
     178:	e5801014 	str	r1, [r0, #20]

0000017c <cpu_sleep>:
     17c:	ee070f90 	mcr	15, 0, r0, cr7, cr0, {4}
     180:	eafffffd 	b	17c <cpu_sleep>
     184:	00001f7e 	.word	0x00001f7e
     188:	004005bc 	.word	0x004005bc
     18c:	e5007000 	.word	0xe5007000

00000190 <cpu_init_mode>:
     190:	e10f3000 	mrs	r3, CPSR
     194:	e121f001 	msr	CPSR_c, r1
     198:	e1a0d000 	mov	sp, r0
     19c:	e12ff003 	msr	CPSR_fsxc, r3
     1a0:	e0400102 	sub	r0, r0, r2, lsl #2
     1a4:	e12fff1e 	bx	lr

000001a8 <cpu_irq_disable>:
     1a8:	e10f0000 	mrs	r0, CPSR
     1ac:	e3801080 	orr	r1, r0, #128	; 0x80
     1b0:	e121f001 	msr	CPSR_c, r1
     1b4:	e12fff1e 	bx	lr

000001b8 <cpu_int_enable>:
     1b8:	e10f0000 	mrs	r0, CPSR
     1bc:	e3c010c0 	bic	r1, r0, #192	; 0xc0
     1c0:	e121f001 	msr	CPSR_c, r1
     1c4:	e12fff1e 	bx	lr

000001c8 <cpu_int_disable>:
     1c8:	e10f0000 	mrs	r0, CPSR
     1cc:	e38010c0 	orr	r1, r0, #192	; 0xc0
     1d0:	e121f001 	msr	CPSR_c, r1
     1d4:	e12fff1e 	bx	lr

000001d8 <cpu_int_restore>:
     1d8:	e12ff000 	msr	CPSR_fsxc, r0
     1dc:	e12fff1e 	bx	lr

000001e0 <cpu_wfi>:
     1e0:	ee070f90 	mcr	15, 0, r0, cr7, cr0, {4}
     1e4:	e12fff1e 	bx	lr

000001e8 <sark_lock_get>:
     1e8:	e3a0c4e2 	mov	ip, #-503316480	; 0xe2000000
     1ec:	e08cc100 	add	ip, ip, r0, lsl #2
     1f0:	e10f0000 	mrs	r0, CPSR
     1f4:	e38010c0 	orr	r1, r0, #192	; 0xc0
     1f8:	e121f001 	msr	CPSR_c, r1

000001fc <lg1>:
     1fc:	e59c1100 	ldr	r1, [ip, #256]	; 0x100
     200:	e3110102 	tst	r1, #-2147483648	; 0x80000000
     204:	1afffffc 	bne	1fc <lg1>
     208:	e12fff1e 	bx	lr

0000020c <sark_lock_free>:
     20c:	e3a0c4e2 	mov	ip, #-503316480	; 0xe2000000
     210:	e08c1101 	add	r1, ip, r1, lsl #2
     214:	e5911180 	ldr	r1, [r1, #384]	; 0x180
     218:	e121f000 	msr	CPSR_c, r0
     21c:	e12fff1e 	bx	lr

00000220 <sark_str_cpy>:
     220:	e4d12001 	ldrb	r2, [r1], #1
     224:	e3520000 	cmp	r2, #0
     228:	e4c02001 	strb	r2, [r0], #1
     22c:	1afffffb 	bne	220 <sark_str_cpy>
     230:	e12fff1e 	bx	lr

00000234 <sark_word_set>:
     234:	e1a03001 	mov	r3, r1

00000238 <ws1>:
     238:	e2522010 	subs	r2, r2, #16
     23c:	28a0000a 	stmiacs	r0!, {r1, r3}
     240:	28a0000a 	stmiacs	r0!, {r1, r3}
     244:	2afffffb 	bcs	238 <ws1>
     248:	e1b02e82 	lsls	r2, r2, #29
     24c:	28a0000a 	stmiacs	r0!, {r1, r3}
     250:	48a00002 	stmiami	r0!, {r1}
     254:	e12fff1e 	bx	lr

00000258 <sark_msg_cpy>:
     258:	e2800004 	add	r0, r0, #4
     25c:	e2811004 	add	r1, r1, #4
     260:	e1d120b0 	ldrh	r2, [r1]
     264:	e2822004 	add	r2, r2, #4

00000268 <sark_word_cpy>:
     268:	e3120003 	tst	r2, #3
     26c:	13c22003 	bicne	r2, r2, #3
     270:	12822004 	addne	r2, r2, #4
     274:	e92d4010 	push	{r4, lr}
     278:	e2522020 	subs	r2, r2, #32
     27c:	3a000005 	bcc	298 <wc2>

00000280 <wc1>:
     280:	e8b15018 	ldm	r1!, {r3, r4, ip, lr}
     284:	e8a05018 	stmia	r0!, {r3, r4, ip, lr}
     288:	e8b15018 	ldm	r1!, {r3, r4, ip, lr}
     28c:	e8a05018 	stmia	r0!, {r3, r4, ip, lr}
     290:	e2522020 	subs	r2, r2, #32
     294:	2afffff9 	bcs	280 <wc1>

00000298 <wc2>:
     298:	e1b0ce02 	lsls	ip, r2, #28
     29c:	28b15018 	ldmcs	r1!, {r3, r4, ip, lr}
     2a0:	28a05018 	stmiacs	r0!, {r3, r4, ip, lr}
     2a4:	48b10018 	ldmmi	r1!, {r3, r4}
     2a8:	48a00018 	stmiami	r0!, {r3, r4}
     2ac:	e1b0cf02 	lsls	ip, r2, #30
     2b0:	24913004 	ldrcs	r3, [r1], #4
     2b4:	24803004 	strcs	r3, [r0], #4
     2b8:	e8bd8010 	pop	{r4, pc}

000002bc <sark_delay_us>:
     2bc:	4903      	ldr	r1, [pc, #12]	; (2cc <delay1+0x8>)
     2be:	8809      	ldrh	r1, [r1, #0]
     2c0:	4341      	muls	r1, r0
     2c2:	0888      	lsrs	r0, r1, #2

000002c4 <delay1>:
     2c4:	3801      	subs	r0, #1
     2c6:	d2fd      	bcs.n	2c4 <delay1>
     2c8:	4770      	bx	lr
     2ca:	0000      	.short	0x0000
     2cc:	004005ec 	.word	0x004005ec

000002d0 <sark_div10>:
     2d0:	e241200a 	sub	r2, r1, #10
     2d4:	e0411121 	sub	r1, r1, r1, lsr #2
     2d8:	e0811221 	add	r1, r1, r1, lsr #4
     2dc:	e0811421 	add	r1, r1, r1, lsr #8
     2e0:	e0811821 	add	r1, r1, r1, lsr #16
     2e4:	e1a011a1 	lsr	r1, r1, #3
     2e8:	e0813101 	add	r3, r1, r1, lsl #2
     2ec:	e0522083 	subs	r2, r2, r3, lsl #1
     2f0:	52811001 	addpl	r1, r1, #1
     2f4:	4282200a 	addmi	r2, r2, #10
     2f8:	e8800006 	stm	r0, {r1, r2}
     2fc:	e12fff1e 	bx	lr

00000300 <sark_int_han>:
     300:	e92d500f 	push	{r0, r1, r2, r3, ip, lr}
     304:	e24e0004 	sub	r0, lr, #4
     308:	e14fc000 	mrs	ip, SPSR
     30c:	e321f01f 	msr	CPSR_c, #31
     310:	e92d5000 	push	{ip, lr}
     314:	fa0011a5 	blx	49b0 <sark_int>
     318:	e8bd5000 	pop	{ip, lr}
     31c:	e321f092 	msr	CPSR_c, #146	; 0x92
     320:	e16ff00c 	msr	SPSR_fsxc, ip
     324:	e3a0042f 	mov	r0, #788529152	; 0x2f000000
     328:	e5800030 	str	r0, [r0, #48]	; 0x30
     32c:	e8bd500f 	pop	{r0, r1, r2, r3, ip, lr}

00000330 <null_int_han>:
     330:	e25ef004 	subs	pc, lr, #4

00000334 <schedule>:
     334:	e92d5000 	push	{ip, lr}
     338:	e10fc000 	mrs	ip, CPSR
     33c:	e3cce01f 	bic	lr, ip, #31
     340:	e38ee01f 	orr	lr, lr, #31
     344:	e121f00e 	msr	CPSR_c, lr
     348:	e92d5000 	push	{ip, lr}
     34c:	fa001616 	blx	5bac <schedule_sysmode>
     350:	e8bd5000 	pop	{ip, lr}
     354:	e121f00c 	msr	CPSR_c, ip
     358:	e8bd5000 	pop	{ip, lr}
     35c:	e12fff1e 	bx	lr

00000360 <sark_config>:
     360:	4770      	bx	lr

00000362 <sark_bx>:
     362:	4700      	bx	r0

00000364 <__gnu_thumb1_case_uqi>:
     364:	468c      	mov	ip, r1
     366:	4671      	mov	r1, lr
     368:	3901      	subs	r1, #1
     36a:	5c09      	ldrb	r1, [r1, r0]
     36c:	0049      	lsls	r1, r1, #1
     36e:	448e      	add	lr, r1
     370:	4661      	mov	r1, ip
     372:	4770      	bx	lr

00000374 <sark_aplx>:
     374:	b5f2      	push	{r1, r4, r5, r6, r7, lr}
     376:	4905      	ldr	r1, [pc, #20]	; (38c <aplx_buffer>)
     378:	a605      	add	r6, pc, #20	; (adr r6, 390 <aplx_loader>)
     37a:	2740      	movs	r7, #64	; 0x40

0000037c <aplx_l0>:
     37c:	ce3c      	ldmia	r6!, {r2, r3, r4, r5}
     37e:	c13c      	stmia	r1!, {r2, r3, r4, r5}
     380:	3f10      	subs	r7, #16
     382:	d1fb      	bne.n	37c <aplx_l0>
     384:	1c04      	adds	r4, r0, #0
     386:	393f      	subs	r1, #63	; 0x3f
     388:	4708      	bx	r1
	...

0000038c <aplx_buffer>:
     38c:	00007fc0 	.word	0x00007fc0

00000390 <aplx_loader>:
     390:	cc0f      	ldmia	r4!, {r0, r1, r2, r3}
     392:	2801      	cmp	r0, #1
     394:	d008      	beq.n	3a8 <aplx_copy>
     396:	2802      	cmp	r0, #2
     398:	d004      	beq.n	3a4 <aplx_rcopy>
     39a:	2803      	cmp	r0, #3
     39c:	d00b      	beq.n	3b6 <aplx_fill>
     39e:	2804      	cmp	r0, #4
     3a0:	d011      	beq.n	3c6 <aplx_exec>
     3a2:	bdf2      	pop	{r1, r4, r5, r6, r7, pc}

000003a4 <aplx_rcopy>:
     3a4:	1912      	adds	r2, r2, r4
     3a6:	3a10      	subs	r2, #16

000003a8 <aplx_copy>:
     3a8:	cae1      	ldmia	r2!, {r0, r5, r6, r7}
     3aa:	c1e1      	stmia	r1!, {r0, r5, r6, r7}
     3ac:	cae1      	ldmia	r2!, {r0, r5, r6, r7}
     3ae:	c1e1      	stmia	r1!, {r0, r5, r6, r7}
     3b0:	3b20      	subs	r3, #32
     3b2:	d8f9      	bhi.n	3a8 <aplx_copy>
     3b4:	e7ec      	b.n	390 <aplx_loader>

000003b6 <aplx_fill>:
     3b6:	1c1d      	adds	r5, r3, #0
     3b8:	1c1e      	adds	r6, r3, #0
     3ba:	1c1f      	adds	r7, r3, #0

000003bc <aplx_l1>:
     3bc:	c1e8      	stmia	r1!, {r3, r5, r6, r7}
     3be:	c1e8      	stmia	r1!, {r3, r5, r6, r7}
     3c0:	3a20      	subs	r2, #32
     3c2:	d8fb      	bhi.n	3bc <aplx_l1>
     3c4:	e7e4      	b.n	390 <aplx_loader>

000003c6 <aplx_exec>:
     3c6:	9800      	ldr	r0, [sp, #0]
     3c8:	4788      	blx	r1
     3ca:	e7e1      	b.n	390 <aplx_loader>

000003cc <resume_callback>:
     3cc:	e59f3008 	ldr	r3, [pc, #8]	; 3dc <resume_callback+0x10>
     3d0:	e3e02000 	mvn	r2, #0
     3d4:	e5832000 	str	r2, [r3]
     3d8:	e12fff1e 	bx	lr
     3dc:	00400014 	.word	0x00400014

000003e0 <return_mem_address>:
     3e0:	e92d4010 	push	{r4, lr}
     3e4:	e1a04000 	mov	r4, r0
     3e8:	eb000b9c 	bl	3260 <data_specification_get_data_address>
     3ec:	e1a01000 	mov	r1, r0
     3f0:	e1a00004 	mov	r0, r4
     3f4:	e8bd4010 	pop	{r4, lr}
     3f8:	ea000bce 	b	3338 <data_specification_get_region>

000003fc <iobuf_data>:
     3fc:	e92d4010 	push	{r4, lr}
     400:	eb000b96 	bl	3260 <data_specification_get_data_address>
     404:	e8bd4010 	pop	{r4, lr}
     408:	e1a01000 	mov	r1, r0
     40c:	e3a00001 	mov	r0, #1
     410:	ea000bc8 	b	3338 <data_specification_get_region>

00000414 <search_dictionary>:
     414:	e59f30e0 	ldr	r3, [pc, #224]	; 4fc <search_dictionary+0xe8>
     418:	e5933000 	ldr	r3, [r3]
     41c:	e1d320b8 	ldrh	r2, [r3, #8]
     420:	e3520000 	cmp	r2, #0
     424:	0a000030 	beq	4ec <search_dictionary+0xd8>
     428:	e52de004 	push	{lr}		; (str lr, [sp, #-4]!)
     42c:	e5d32004 	ldrb	r2, [r3, #4]
     430:	e5931000 	ldr	r1, [r3]
     434:	e3520003 	cmp	r2, #3
     438:	8a000021 	bhi	4c4 <search_dictionary+0xb0>
     43c:	e3520000 	cmp	r2, #0
     440:	0a000015 	beq	49c <search_dictionary+0x88>
     444:	e590e000 	ldr	lr, [r0]
     448:	e591c000 	ldr	ip, [r1]
     44c:	e15e000c 	cmp	lr, ip
     450:	1a000013 	bne	4a4 <search_dictionary+0x90>
     454:	e3520001 	cmp	r2, #1
     458:	0a00000f 	beq	49c <search_dictionary+0x88>
     45c:	e591e004 	ldr	lr, [r1, #4]
     460:	e590c004 	ldr	ip, [r0, #4]
     464:	e15e000c 	cmp	lr, ip
     468:	1a00000d 	bne	4a4 <search_dictionary+0x90>
     46c:	e3520002 	cmp	r2, #2
     470:	0a000009 	beq	49c <search_dictionary+0x88>
     474:	e590e008 	ldr	lr, [r0, #8]
     478:	e591c008 	ldr	ip, [r1, #8]
     47c:	e15e000c 	cmp	lr, ip
     480:	1a000007 	bne	4a4 <search_dictionary+0x90>
     484:	e3520004 	cmp	r2, #4
     488:	1a000003 	bne	49c <search_dictionary+0x88>
     48c:	e591200c 	ldr	r2, [r1, #12]
     490:	e590100c 	ldr	r1, [r0, #12]
     494:	e1510002 	cmp	r1, r2
     498:	1a000001 	bne	4a4 <search_dictionary+0x90>
     49c:	e1a00003 	mov	r0, r3
     4a0:	e49df004 	pop	{pc}		; (ldr pc, [sp], #4)
     4a4:	e5933010 	ldr	r3, [r3, #16]
     4a8:	e1d320b8 	ldrh	r2, [r3, #8]
     4ac:	e3520000 	cmp	r2, #0
     4b0:	1affffdd 	bne	42c <search_dictionary+0x18>
     4b4:	e59f2044 	ldr	r2, [pc, #68]	; 500 <search_dictionary+0xec>
     4b8:	e1a00003 	mov	r0, r3
     4bc:	e5823000 	str	r3, [r2]
     4c0:	e49df004 	pop	{pc}		; (ldr pc, [sp], #4)
     4c4:	e590c000 	ldr	ip, [r0]
     4c8:	e5912000 	ldr	r2, [r1]
     4cc:	e15c0002 	cmp	ip, r2
     4d0:	1afffff3 	bne	4a4 <search_dictionary+0x90>
     4d4:	e590c004 	ldr	ip, [r0, #4]
     4d8:	e5912004 	ldr	r2, [r1, #4]
     4dc:	e15c0002 	cmp	ip, r2
     4e0:	1affffef 	bne	4a4 <search_dictionary+0x90>
     4e4:	e3a02004 	mov	r2, #4
     4e8:	eaffffe1 	b	474 <search_dictionary+0x60>
     4ec:	e59f200c 	ldr	r2, [pc, #12]	; 500 <search_dictionary+0xec>
     4f0:	e1a00003 	mov	r0, r3
     4f4:	e5823000 	str	r3, [r2]
     4f8:	e12fff1e 	bx	lr
     4fc:	00400554 	.word	0x00400554
     500:	0040055c 	.word	0x0040055c

00000504 <search_dictionary_with_id>:
     504:	e59f3048 	ldr	r3, [pc, #72]	; 554 <search_dictionary_with_id+0x50>
     508:	e5933000 	ldr	r3, [r3]
     50c:	e1d320b8 	ldrh	r2, [r3, #8]
     510:	e3520000 	cmp	r2, #0
     514:	0a00000a 	beq	544 <search_dictionary_with_id+0x40>
     518:	e1d320b6 	ldrh	r2, [r3, #6]
     51c:	e1500002 	cmp	r0, r2
     520:	1a000003 	bne	534 <search_dictionary_with_id+0x30>
     524:	ea000008 	b	54c <search_dictionary_with_id+0x48>
     528:	e1d320b6 	ldrh	r2, [r3, #6]
     52c:	e1520000 	cmp	r2, r0
     530:	0a000005 	beq	54c <search_dictionary_with_id+0x48>
     534:	e5933010 	ldr	r3, [r3, #16]
     538:	e1d320b8 	ldrh	r2, [r3, #8]
     53c:	e3520000 	cmp	r2, #0
     540:	1afffff8 	bne	528 <search_dictionary_with_id+0x24>
     544:	e59f200c 	ldr	r2, [pc, #12]	; 558 <search_dictionary_with_id+0x54>
     548:	e5823000 	str	r3, [r2]
     54c:	e1a00003 	mov	r0, r3
     550:	e12fff1e 	bx	lr
     554:	00400554 	.word	0x00400554
     558:	0040055c 	.word	0x0040055c

0000055c <add_item_to_dictionary>:
     55c:	e92d47f0 	push	{r4, r5, r6, r7, r8, r9, sl, lr}
     560:	e59f3124 	ldr	r3, [pc, #292]	; 68c <ETH_TX_SIZE+0x8c>
     564:	e1a05000 	mov	r5, r0
     568:	e5900000 	ldr	r0, [r0]
     56c:	e59f711c 	ldr	r7, [pc, #284]	; 690 <ETH_TX_SIZE+0x90>
     570:	e1500003 	cmp	r0, r3
     574:	e1a08001 	mov	r8, r1
     578:	e1a09002 	mov	r9, r2
     57c:	e5974000 	ldr	r4, [r7]
     580:	0a000030 	beq	648 <ETH_TX_SIZE+0x48>
     584:	e5952004 	ldr	r2, [r5, #4]
     588:	e1520003 	cmp	r2, r3
     58c:	0a000031 	beq	658 <ETH_TX_SIZE+0x58>
     590:	e5952008 	ldr	r2, [r5, #8]
     594:	e1520003 	cmp	r2, r3
     598:	0a000037 	beq	67c <ETH_TX_SIZE+0x7c>
     59c:	e595200c 	ldr	r2, [r5, #12]
     5a0:	e1520003 	cmp	r2, r3
     5a4:	0a000036 	beq	684 <ETH_TX_SIZE+0x84>
     5a8:	e3a06004 	mov	r6, #4
     5ac:	e5c46004 	strb	r6, [r4, #4]
     5b0:	e3a00010 	mov	r0, #16
     5b4:	fa001579 	blx	5ba0 <spin1_malloc>
     5b8:	e5953000 	ldr	r3, [r5]
     5bc:	e5803000 	str	r3, [r0]
     5c0:	e5953004 	ldr	r3, [r5, #4]
     5c4:	e3560002 	cmp	r6, #2
     5c8:	e5803004 	str	r3, [r0, #4]
     5cc:	0a000004 	beq	5e4 <SPARE_SIZE+0x44>
     5d0:	e5953008 	ldr	r3, [r5, #8]
     5d4:	e3560004 	cmp	r6, #4
     5d8:	e5803008 	str	r3, [r0, #8]
     5dc:	0595300c 	ldreq	r3, [r5, #12]
     5e0:	0580300c 	streq	r3, [r0, #12]
     5e4:	e1a01808 	lsl	r1, r8, #16
     5e8:	e1a01821 	lsr	r1, r1, #16
     5ec:	e2812001 	add	r2, r1, #1
     5f0:	e3a03001 	mov	r3, #1
     5f4:	e1c410bc 	strh	r1, [r4, #12]
     5f8:	e1c420be 	strh	r2, [r4, #14]
     5fc:	e5840000 	str	r0, [r4]
     600:	e1c430b8 	strh	r3, [r4, #8]
     604:	e1c430ba 	strh	r3, [r4, #10]
     608:	e1c490b6 	strh	r9, [r4, #6]
     60c:	e3a00014 	mov	r0, #20
     610:	fa001562 	blx	5ba0 <spin1_malloc>
     614:	e59f1078 	ldr	r1, [pc, #120]	; 694 <ETH_TX_SIZE+0x94>
     618:	e3a03000 	mov	r3, #0
     61c:	e5912000 	ldr	r2, [r1]
     620:	e3e0c000 	mvn	ip, #0
     624:	e2822001 	add	r2, r2, #1
     628:	e5812000 	str	r2, [r1]
     62c:	e5840010 	str	r0, [r4, #16]
     630:	e5870000 	str	r0, [r7]
     634:	e1c0c0b6 	strh	ip, [r0, #6]
     638:	e1c030b8 	strh	r3, [r0, #8]
     63c:	e1c030bc 	strh	r3, [r0, #12]
     640:	e1c030be 	strh	r3, [r0, #14]
     644:	e8bd87f0 	pop	{r4, r5, r6, r7, r8, r9, sl, pc}
     648:	e3a00000 	mov	r0, #0
     64c:	e5c40004 	strb	r0, [r4, #4]
     650:	fa001552 	blx	5ba0 <spin1_malloc>
     654:	eaffffe2 	b	5e4 <SPARE_SIZE+0x44>
     658:	e3a06001 	mov	r6, #1
     65c:	e5c46004 	strb	r6, [r4, #4]
     660:	e1a00106 	lsl	r0, r6, #2
     664:	fa00154d 	blx	5ba0 <spin1_malloc>
     668:	e5953000 	ldr	r3, [r5]
     66c:	e3560001 	cmp	r6, #1
     670:	e5803000 	str	r3, [r0]
     674:	0affffda 	beq	5e4 <SPARE_SIZE+0x44>
     678:	eaffffd0 	b	5c0 <SPARE_SIZE+0x20>
     67c:	e3a06002 	mov	r6, #2
     680:	eafffff5 	b	65c <ETH_TX_SIZE+0x5c>
     684:	e3a06003 	mov	r6, #3
     688:	eafffff3 	b	65c <ETH_TX_SIZE+0x5c>
     68c:	20202020 	.word	0x20202020
     690:	0040055c 	.word	0x0040055c
     694:	004005b4 	.word	0x004005b4

00000698 <write_dict_item_to_SDRAM>:
     698:	e5902000 	ldr	r2, [r0]
     69c:	e59f30ec 	ldr	r3, [pc, #236]	; 790 <write_dict_item_to_SDRAM+0xf8>
     6a0:	e92d4070 	push	{r4, r5, r6, lr}
     6a4:	e1520003 	cmp	r2, r3
     6a8:	e1a05000 	mov	r5, r0
     6ac:	e1a04001 	mov	r4, r1
     6b0:	0a000030 	beq	778 <write_dict_item_to_SDRAM+0xe0>
     6b4:	e5902004 	ldr	r2, [r0, #4]
     6b8:	e1520003 	cmp	r2, r3
     6bc:	0a00002f 	beq	780 <write_dict_item_to_SDRAM+0xe8>
     6c0:	e5902008 	ldr	r2, [r0, #8]
     6c4:	e1520003 	cmp	r2, r3
     6c8:	0a00002e 	beq	788 <write_dict_item_to_SDRAM+0xf0>
     6cc:	e590600c 	ldr	r6, [r0, #12]
     6d0:	e1560003 	cmp	r6, r3
     6d4:	13a06004 	movne	r6, #4
     6d8:	03a06003 	moveq	r6, #3
     6dc:	eb000adf 	bl	3260 <data_specification_get_data_address>
     6e0:	e1a01000 	mov	r1, r0
     6e4:	e3a00006 	mov	r0, #6
     6e8:	eb000b12 	bl	3338 <data_specification_get_region>
     6ec:	e59fc0a0 	ldr	ip, [pc, #160]	; 794 <write_dict_item_to_SDRAM+0xfc>
     6f0:	e3a02004 	mov	r2, #4
     6f4:	e99c0009 	ldmib	ip, {r0, r3}
     6f8:	e2833003 	add	r3, r3, #3
     6fc:	e0833006 	add	r3, r3, r6
     700:	e2800001 	add	r0, r0, #1
     704:	e1a01003 	mov	r1, r3
     708:	e58c0004 	str	r0, [ip, #4]
     70c:	e3a00006 	mov	r0, #6
     710:	e58c3008 	str	r3, [ip, #8]
     714:	eb000d52 	bl	3c64 <recording_record>
     718:	e1a01004 	mov	r1, r4
     71c:	e3a02004 	mov	r2, #4
     720:	e3a00006 	mov	r0, #6
     724:	eb000d4e 	bl	3c64 <recording_record>
     728:	e3a02004 	mov	r2, #4
     72c:	e3a01001 	mov	r1, #1
     730:	e3a00006 	mov	r0, #6
     734:	eb000d4a 	bl	3c64 <recording_record>
     738:	e3a02004 	mov	r2, #4
     73c:	e3a01001 	mov	r1, #1
     740:	e3a00006 	mov	r0, #6
     744:	eb000d46 	bl	3c64 <recording_record>
     748:	e3560000 	cmp	r6, #0
     74c:	08bd8070 	popeq	{r4, r5, r6, pc}
     750:	e2455004 	sub	r5, r5, #4
     754:	e3a04000 	mov	r4, #0
     758:	e2844001 	add	r4, r4, #1
     75c:	e3a02004 	mov	r2, #4
     760:	e5b51004 	ldr	r1, [r5, #4]!
     764:	e3a00006 	mov	r0, #6
     768:	eb000d3d 	bl	3c64 <recording_record>
     76c:	e1560004 	cmp	r6, r4
     770:	8afffff8 	bhi	758 <write_dict_item_to_SDRAM+0xc0>
     774:	e8bd8070 	pop	{r4, r5, r6, pc}
     778:	e3a06000 	mov	r6, #0
     77c:	eaffffd6 	b	6dc <write_dict_item_to_SDRAM+0x44>
     780:	e3a06001 	mov	r6, #1
     784:	eaffffd4 	b	6dc <write_dict_item_to_SDRAM+0x44>
     788:	e3a06002 	mov	r6, #2
     78c:	eaffffd2 	b	6dc <write_dict_item_to_SDRAM+0x44>
     790:	20202020 	.word	0x20202020
     794:	00400014 	.word	0x00400014

00000798 <search_dict_item_in_SDRAM>:
     798:	e92d4010 	push	{r4, lr}
     79c:	eb000aaf 	bl	3260 <data_specification_get_data_address>
     7a0:	e1a01000 	mov	r1, r0
     7a4:	e3a00006 	mov	r0, #6
     7a8:	eb000ae2 	bl	3338 <data_specification_get_region>
     7ac:	e59f3050 	ldr	r3, [pc, #80]	; 804 <STACK_SIZE+0x4>
     7b0:	e1a01000 	mov	r1, r0
     7b4:	e5930004 	ldr	r0, [r3, #4]
     7b8:	e3500000 	cmp	r0, #0
     7bc:	08bd8010 	popeq	{r4, pc}
     7c0:	e5912004 	ldr	r2, [r1, #4]
     7c4:	e3520000 	cmp	r2, #0
     7c8:	1a000009 	bne	7f4 <search_dict_item_in_SDRAM+0x5c>
     7cc:	e3a03001 	mov	r3, #1
     7d0:	ea000002 	b	7e0 <search_dict_item_in_SDRAM+0x48>
     7d4:	e791c103 	ldr	ip, [r1, r3, lsl #2]
     7d8:	e35c0000 	cmp	ip, #0
     7dc:	1a000006 	bne	7fc <search_dict_item_in_SDRAM+0x64>
     7e0:	e2822001 	add	r2, r2, #1
     7e4:	e2433107 	sub	r3, r3, #-1073741823	; 0xc0000001
     7e8:	e1520000 	cmp	r2, r0
     7ec:	e7913103 	ldr	r3, [r1, r3, lsl #2]
     7f0:	1afffff7 	bne	7d4 <search_dict_item_in_SDRAM+0x3c>
     7f4:	e3a00000 	mov	r0, #0
     7f8:	e8bd8010 	pop	{r4, pc}
     7fc:	e2430001 	sub	r0, r3, #1
     800:	e8bd8010 	pop	{r4, pc}
     804:	00400014 	.word	0x00400014

00000808 <compare_two_strings>:
     808:	e1510003 	cmp	r1, r3
     80c:	31a03001 	movcc	r3, r1
     810:	e3530000 	cmp	r3, #0
     814:	0a000011 	beq	860 <compare_two_strings+0x58>
     818:	e590c000 	ldr	ip, [r0]
     81c:	e5921000 	ldr	r1, [r2]
     820:	e15c0001 	cmp	ip, r1
     824:	1a00000f 	bne	868 <compare_two_strings+0x60>
     828:	e92d4010 	push	{r4, lr}
     82c:	e3a0c000 	mov	ip, #0
     830:	ea000003 	b	844 <compare_two_strings+0x3c>
     834:	e5b04004 	ldr	r4, [r0, #4]!
     838:	e5b2e004 	ldr	lr, [r2, #4]!
     83c:	e154000e 	cmp	r4, lr
     840:	1a000004 	bne	858 <compare_two_strings+0x50>
     844:	e28cc001 	add	ip, ip, #1
     848:	e15c0003 	cmp	ip, r3
     84c:	1afffff8 	bne	834 <compare_two_strings+0x2c>
     850:	e3a00001 	mov	r0, #1
     854:	e8bd8010 	pop	{r4, pc}
     858:	e3a00000 	mov	r0, #0
     85c:	e8bd8010 	pop	{r4, pc}
     860:	e3a00001 	mov	r0, #1
     864:	e12fff1e 	bx	lr
     868:	e3a00000 	mov	r0, #0
     86c:	e12fff1e 	bx	lr

00000870 <find_instance_of>:
     870:	e59f3048 	ldr	r3, [pc, #72]	; 8c0 <find_instance_of+0x50>
     874:	e5933000 	ldr	r3, [r3]
     878:	e1d320b8 	ldrh	r2, [r3, #8]
     87c:	e3520000 	cmp	r2, #0
     880:	0a00000a 	beq	8b0 <find_instance_of+0x40>
     884:	e1d320b6 	ldrh	r2, [r3, #6]
     888:	e1500002 	cmp	r0, r2
     88c:	1a000003 	bne	8a0 <find_instance_of+0x30>
     890:	ea000008 	b	8b8 <find_instance_of+0x48>
     894:	e1d320b6 	ldrh	r2, [r3, #6]
     898:	e1520000 	cmp	r2, r0
     89c:	0a000005 	beq	8b8 <find_instance_of+0x48>
     8a0:	e5933010 	ldr	r3, [r3, #16]
     8a4:	e1d320b8 	ldrh	r2, [r3, #8]
     8a8:	e3520000 	cmp	r2, #0
     8ac:	1afffff8 	bne	894 <find_instance_of+0x24>
     8b0:	e3e00000 	mvn	r0, #0
     8b4:	e12fff1e 	bx	lr
     8b8:	e1d300bc 	ldrh	r0, [r3, #12]
     8bc:	e12fff1e 	bx	lr
     8c0:	00400554 	.word	0x00400554

000008c4 <send_string>:
     8c4:	e92d4ff0 	push	{r4, r5, r6, r7, r8, r9, sl, fp, lr}
     8c8:	e24dd024 	sub	sp, sp, #36	; 0x24
     8cc:	e1a09000 	mov	r9, r0
     8d0:	eb000a62 	bl	3260 <data_specification_get_data_address>
     8d4:	e1a01000 	mov	r1, r0
     8d8:	e3a00001 	mov	r0, #1
     8dc:	eb000a95 	bl	3338 <data_specification_get_region>
     8e0:	e1a03109 	lsl	r3, r9, #2
     8e4:	e2832007 	add	r2, r3, #7
     8e8:	e283300b 	add	r3, r3, #11
     8ec:	e1520003 	cmp	r2, r3
     8f0:	2a000004 	bcs	908 <send_string+0x44>
     8f4:	e0801209 	add	r1, r0, r9, lsl #4
     8f8:	e3a02010 	mov	r2, #16
     8fc:	e281101c 	add	r1, r1, #28
     900:	e08d0002 	add	r0, sp, r2
     904:	eb00160c 	bl	613c <memcpy>
     908:	e59fa1dc 	ldr	sl, [pc, #476]	; aec <ZI_LENGTH+0x1bc>
     90c:	e3a03000 	mov	r3, #0
     910:	e58a300c 	str	r3, [sl, #12]
     914:	e58a3010 	str	r3, [sl, #16]
     918:	e59d8010 	ldr	r8, [sp, #16]
     91c:	e59f41cc 	ldr	r4, [pc, #460]	; af0 <ZI_LENGTH+0x1c0>
     920:	ea000000 	b	928 <send_string+0x64>
     924:	fa001426 	blx	59c4 <spin1_delay_us>
     928:	e5943000 	ldr	r3, [r4]
     92c:	e3a02001 	mov	r2, #1
     930:	e5930004 	ldr	r0, [r3, #4]
     934:	e1a01008 	mov	r1, r8
     938:	fa00148e 	blx	5b78 <spin1_send_mc_packet>
     93c:	e3500000 	cmp	r0, #0
     940:	e3a00001 	mov	r0, #1
     944:	0afffff6 	beq	924 <send_string+0x60>
     948:	e3a03000 	mov	r3, #0
     94c:	e58a300c 	str	r3, [sl, #12]
     950:	e58a3010 	str	r3, [sl, #16]
     954:	e59d7014 	ldr	r7, [sp, #20]
     958:	ea000000 	b	960 <ZI_LENGTH+0x30>
     95c:	fa001418 	blx	59c4 <spin1_delay_us>
     960:	e5943000 	ldr	r3, [r4]
     964:	e3a02001 	mov	r2, #1
     968:	e5930004 	ldr	r0, [r3, #4]
     96c:	e1a01007 	mov	r1, r7
     970:	fa001480 	blx	5b78 <spin1_send_mc_packet>
     974:	e3500000 	cmp	r0, #0
     978:	e3a00001 	mov	r0, #1
     97c:	0afffff6 	beq	95c <ZI_LENGTH+0x2c>
     980:	e3a03000 	mov	r3, #0
     984:	e58a300c 	str	r3, [sl, #12]
     988:	e58a3010 	str	r3, [sl, #16]
     98c:	e59d6018 	ldr	r6, [sp, #24]
     990:	ea000000 	b	998 <ZI_LENGTH+0x68>
     994:	fa00140a 	blx	59c4 <spin1_delay_us>
     998:	e5943000 	ldr	r3, [r4]
     99c:	e3a02001 	mov	r2, #1
     9a0:	e5930004 	ldr	r0, [r3, #4]
     9a4:	e1a01006 	mov	r1, r6
     9a8:	fa001472 	blx	5b78 <spin1_send_mc_packet>
     9ac:	e3500000 	cmp	r0, #0
     9b0:	e3a00001 	mov	r0, #1
     9b4:	0afffff6 	beq	994 <ZI_LENGTH+0x64>
     9b8:	e3a03000 	mov	r3, #0
     9bc:	e58a300c 	str	r3, [sl, #12]
     9c0:	e58a3010 	str	r3, [sl, #16]
     9c4:	e59d501c 	ldr	r5, [sp, #28]
     9c8:	ea000000 	b	9d0 <ZI_LENGTH+0xa0>
     9cc:	fa0013fc 	blx	59c4 <spin1_delay_us>
     9d0:	e5943000 	ldr	r3, [r4]
     9d4:	e3a02001 	mov	r2, #1
     9d8:	e5930004 	ldr	r0, [r3, #4]
     9dc:	e1a01005 	mov	r1, r5
     9e0:	fa001464 	blx	5b78 <spin1_send_mc_packet>
     9e4:	e3500000 	cmp	r0, #0
     9e8:	e3a00001 	mov	r0, #1
     9ec:	0afffff6 	beq	9cc <ZI_LENGTH+0x9c>
     9f0:	e59fb0fc 	ldr	fp, [pc, #252]	; af4 <ZI_LENGTH+0x1c4>
     9f4:	e1a03019 	lsl	r3, r9, r0
     9f8:	e59b2000 	ldr	r2, [fp]
     9fc:	e1a01003 	mov	r1, r3
     a00:	e58d300c 	str	r3, [sp, #12]
     a04:	e3a03000 	mov	r3, #0
     a08:	e19290f1 	ldrsh	r9, [r2, r1]
     a0c:	e58a300c 	str	r3, [sl, #12]
     a10:	e58a3010 	str	r3, [sl, #16]
     a14:	ea000000 	b	a1c <ZI_LENGTH+0xec>
     a18:	fa0013e9 	blx	59c4 <spin1_delay_us>
     a1c:	e5943000 	ldr	r3, [r4]
     a20:	e3a02001 	mov	r2, #1
     a24:	e5930004 	ldr	r0, [r3, #4]
     a28:	e1a01009 	mov	r1, r9
     a2c:	fa001451 	blx	5b78 <spin1_send_mc_packet>
     a30:	e3500000 	cmp	r0, #0
     a34:	e3a00001 	mov	r0, #1
     a38:	0afffff6 	beq	a18 <ZI_LENGTH+0xe8>
     a3c:	e59a3000 	ldr	r3, [sl]
     a40:	e2433065 	sub	r3, r3, #101	; 0x65
     a44:	e3530030 	cmp	r3, #48	; 0x30
     a48:	8a000025 	bhi	ae4 <ZI_LENGTH+0x1b4>
     a4c:	e59f30a4 	ldr	r3, [pc, #164]	; af8 <ZI_LENGTH+0x1c8>
     a50:	e59f20a4 	ldr	r2, [pc, #164]	; afc <ZI_LENGTH+0x1cc>
     a54:	e59f10a4 	ldr	r1, [pc, #164]	; b00 <ZI_LENGTH+0x1d0>
     a58:	e3a00002 	mov	r0, #2
     a5c:	fa00118b 	blx	5090 <io_printf>
     a60:	e59f309c 	ldr	r3, [pc, #156]	; b04 <ZI_LENGTH+0x1d4>
     a64:	e59f2090 	ldr	r2, [pc, #144]	; afc <ZI_LENGTH+0x1cc>
     a68:	e59f1098 	ldr	r1, [pc, #152]	; b08 <ZI_LENGTH+0x1d8>
     a6c:	e3a00002 	mov	r0, #2
     a70:	e58d8000 	str	r8, [sp]
     a74:	fa001185 	blx	5090 <io_printf>
     a78:	e3a03e23 	mov	r3, #560	; 0x230
     a7c:	e59f2078 	ldr	r2, [pc, #120]	; afc <ZI_LENGTH+0x1cc>
     a80:	e59f1084 	ldr	r1, [pc, #132]	; b0c <ZI_LENGTH+0x1dc>
     a84:	e3a00002 	mov	r0, #2
     a88:	e58d7000 	str	r7, [sp]
     a8c:	fa00117f 	blx	5090 <io_printf>
     a90:	e59f3078 	ldr	r3, [pc, #120]	; b10 <ZI_LENGTH+0x1e0>
     a94:	e59f2060 	ldr	r2, [pc, #96]	; afc <ZI_LENGTH+0x1cc>
     a98:	e59f1074 	ldr	r1, [pc, #116]	; b14 <ZI_LENGTH+0x1e4>
     a9c:	e3a00002 	mov	r0, #2
     aa0:	e58d6000 	str	r6, [sp]
     aa4:	fa001179 	blx	5090 <io_printf>
     aa8:	e59f3068 	ldr	r3, [pc, #104]	; b18 <ZI_LENGTH+0x1e8>
     aac:	e59f2048 	ldr	r2, [pc, #72]	; afc <ZI_LENGTH+0x1cc>
     ab0:	e59f1064 	ldr	r1, [pc, #100]	; b1c <ZI_LENGTH+0x1ec>
     ab4:	e3a00002 	mov	r0, #2
     ab8:	e58d5000 	str	r5, [sp]
     abc:	fa001173 	blx	5090 <io_printf>
     ac0:	e59b2000 	ldr	r2, [fp]
     ac4:	e59d100c 	ldr	r1, [sp, #12]
     ac8:	e59f3050 	ldr	r3, [pc, #80]	; b20 <ZI_LENGTH+0x1f0>
     acc:	e19220f1 	ldrsh	r2, [r2, r1]
     ad0:	e58d2000 	str	r2, [sp]
     ad4:	e59f1048 	ldr	r1, [pc, #72]	; b24 <ZI_LENGTH+0x1f4>
     ad8:	e59f201c 	ldr	r2, [pc, #28]	; afc <ZI_LENGTH+0x1cc>
     adc:	e3a00002 	mov	r0, #2
     ae0:	fa00116a 	blx	5090 <io_printf>
     ae4:	e28dd024 	add	sp, sp, #36	; 0x24
     ae8:	e8bd8ff0 	pop	{r4, r5, r6, r7, r8, r9, sl, fp, pc}
     aec:	00400014 	.word	0x00400014
     af0:	00400550 	.word	0x00400550
     af4:	0040057c 	.word	0x0040057c
     af8:	0000022e 	.word	0x0000022e
     afc:	00006450 	.word	0x00006450
     b00:	00006460 	.word	0x00006460
     b04:	0000022f 	.word	0x0000022f
     b08:	00006484 	.word	0x00006484
     b0c:	000064a0 	.word	0x000064a0
     b10:	00000231 	.word	0x00000231
     b14:	000064bc 	.word	0x000064bc
     b18:	00000232 	.word	0x00000232
     b1c:	000064d8 	.word	0x000064d8
     b20:	00000233 	.word	0x00000233
     b24:	000064f4 	.word	0x000064f4

00000b28 <forward_string>:
     b28:	e92d40f0 	push	{r4, r5, r6, r7, lr}
     b2c:	e59f61f8 	ldr	r6, [pc, #504]	; d2c <ETH_RX_SIZE+0x12c>
     b30:	e59f51f8 	ldr	r5, [pc, #504]	; d30 <ETH_RX_SIZE+0x130>
     b34:	e5962004 	ldr	r2, [r6, #4]
     b38:	e3a03000 	mov	r3, #0
     b3c:	e5927000 	ldr	r7, [r2]
     b40:	e24dd00c 	sub	sp, sp, #12
     b44:	e59f41e8 	ldr	r4, [pc, #488]	; d34 <ETH_RX_SIZE+0x134>
     b48:	e585300c 	str	r3, [r5, #12]
     b4c:	e5853010 	str	r3, [r5, #16]
     b50:	ea000000 	b	b58 <forward_string+0x30>
     b54:	fa00139a 	blx	59c4 <spin1_delay_us>
     b58:	e5943000 	ldr	r3, [r4]
     b5c:	e3a02001 	mov	r2, #1
     b60:	e5930004 	ldr	r0, [r3, #4]
     b64:	e1a01007 	mov	r1, r7
     b68:	fa001402 	blx	5b78 <spin1_send_mc_packet>
     b6c:	e3500000 	cmp	r0, #0
     b70:	e3a00001 	mov	r0, #1
     b74:	0afffff6 	beq	b54 <forward_string+0x2c>
     b78:	e5962004 	ldr	r2, [r6, #4]
     b7c:	e3a03000 	mov	r3, #0
     b80:	e5927004 	ldr	r7, [r2, #4]
     b84:	e585300c 	str	r3, [r5, #12]
     b88:	e5853010 	str	r3, [r5, #16]
     b8c:	ea000000 	b	b94 <forward_string+0x6c>
     b90:	fa00138b 	blx	59c4 <spin1_delay_us>
     b94:	e5943000 	ldr	r3, [r4]
     b98:	e3a02001 	mov	r2, #1
     b9c:	e5930004 	ldr	r0, [r3, #4]
     ba0:	e1a01007 	mov	r1, r7
     ba4:	fa0013f3 	blx	5b78 <spin1_send_mc_packet>
     ba8:	e3500000 	cmp	r0, #0
     bac:	e3a00001 	mov	r0, #1
     bb0:	0afffff6 	beq	b90 <forward_string+0x68>
     bb4:	e5962004 	ldr	r2, [r6, #4]
     bb8:	e3a03000 	mov	r3, #0
     bbc:	e5927008 	ldr	r7, [r2, #8]
     bc0:	e585300c 	str	r3, [r5, #12]
     bc4:	e5853010 	str	r3, [r5, #16]
     bc8:	ea000000 	b	bd0 <forward_string+0xa8>
     bcc:	fa00137c 	blx	59c4 <spin1_delay_us>
     bd0:	e5943000 	ldr	r3, [r4]
     bd4:	e3a02001 	mov	r2, #1
     bd8:	e5930004 	ldr	r0, [r3, #4]
     bdc:	e1a01007 	mov	r1, r7
     be0:	fa0013e4 	blx	5b78 <spin1_send_mc_packet>
     be4:	e3500000 	cmp	r0, #0
     be8:	e3a00001 	mov	r0, #1
     bec:	0afffff6 	beq	bcc <forward_string+0xa4>
     bf0:	e5962004 	ldr	r2, [r6, #4]
     bf4:	e3a03000 	mov	r3, #0
     bf8:	e592700c 	ldr	r7, [r2, #12]
     bfc:	e585300c 	str	r3, [r5, #12]
     c00:	e5853010 	str	r3, [r5, #16]
     c04:	ea000000 	b	c0c <ETH_RX_SIZE+0xc>
     c08:	fa00136d 	blx	59c4 <spin1_delay_us>
     c0c:	e5943000 	ldr	r3, [r4]
     c10:	e3a02001 	mov	r2, #1
     c14:	e5930004 	ldr	r0, [r3, #4]
     c18:	e1a01007 	mov	r1, r7
     c1c:	fa0013d5 	blx	5b78 <spin1_send_mc_packet>
     c20:	e3500000 	cmp	r0, #0
     c24:	e3a00001 	mov	r0, #1
     c28:	0afffff6 	beq	c08 <ETH_RX_SIZE+0x8>
     c2c:	e3a03000 	mov	r3, #0
     c30:	e585300c 	str	r3, [r5, #12]
     c34:	e5853010 	str	r3, [r5, #16]
     c38:	e5967008 	ldr	r7, [r6, #8]
     c3c:	ea000000 	b	c44 <ETH_RX_SIZE+0x44>
     c40:	fa00135f 	blx	59c4 <spin1_delay_us>
     c44:	e5943000 	ldr	r3, [r4]
     c48:	e3a02001 	mov	r2, #1
     c4c:	e5930004 	ldr	r0, [r3, #4]
     c50:	e1a01007 	mov	r1, r7
     c54:	fa0013c7 	blx	5b78 <spin1_send_mc_packet>
     c58:	e3500000 	cmp	r0, #0
     c5c:	e3a00001 	mov	r0, #1
     c60:	0afffff6 	beq	c40 <ETH_RX_SIZE+0x40>
     c64:	e5953000 	ldr	r3, [r5]
     c68:	e2433065 	sub	r3, r3, #101	; 0x65
     c6c:	e3530030 	cmp	r3, #48	; 0x30
     c70:	8a00002b 	bhi	d24 <ETH_RX_SIZE+0x124>
     c74:	e59f30bc 	ldr	r3, [pc, #188]	; d38 <ETH_RX_SIZE+0x138>
     c78:	e59f20bc 	ldr	r2, [pc, #188]	; d3c <ETH_RX_SIZE+0x13c>
     c7c:	e59f10bc 	ldr	r1, [pc, #188]	; d40 <ETH_RX_SIZE+0x140>
     c80:	e3a00002 	mov	r0, #2
     c84:	fa001101 	blx	5090 <io_printf>
     c88:	e5962004 	ldr	r2, [r6, #4]
     c8c:	e3a03f91 	mov	r3, #580	; 0x244
     c90:	e5922000 	ldr	r2, [r2]
     c94:	e58d2000 	str	r2, [sp]
     c98:	e59f10a4 	ldr	r1, [pc, #164]	; d44 <ETH_RX_SIZE+0x144>
     c9c:	e59f2098 	ldr	r2, [pc, #152]	; d3c <ETH_RX_SIZE+0x13c>
     ca0:	e3a00002 	mov	r0, #2
     ca4:	fa0010f9 	blx	5090 <io_printf>
     ca8:	e5962004 	ldr	r2, [r6, #4]
     cac:	e59f3094 	ldr	r3, [pc, #148]	; d48 <ETH_RX_SIZE+0x148>
     cb0:	e5922004 	ldr	r2, [r2, #4]
     cb4:	e58d2000 	str	r2, [sp]
     cb8:	e59f108c 	ldr	r1, [pc, #140]	; d4c <ETH_RX_SIZE+0x14c>
     cbc:	e59f2078 	ldr	r2, [pc, #120]	; d3c <ETH_RX_SIZE+0x13c>
     cc0:	e3a00002 	mov	r0, #2
     cc4:	fa0010f1 	blx	5090 <io_printf>
     cc8:	e5962004 	ldr	r2, [r6, #4]
     ccc:	e59f307c 	ldr	r3, [pc, #124]	; d50 <ETH_RX_SIZE+0x150>
     cd0:	e5922008 	ldr	r2, [r2, #8]
     cd4:	e58d2000 	str	r2, [sp]
     cd8:	e59f1074 	ldr	r1, [pc, #116]	; d54 <ETH_RX_SIZE+0x154>
     cdc:	e59f2058 	ldr	r2, [pc, #88]	; d3c <ETH_RX_SIZE+0x13c>
     ce0:	e3a00002 	mov	r0, #2
     ce4:	fa0010e9 	blx	5090 <io_printf>
     ce8:	e5962004 	ldr	r2, [r6, #4]
     cec:	e59f3064 	ldr	r3, [pc, #100]	; d58 <ETH_RX_SIZE+0x158>
     cf0:	e592200c 	ldr	r2, [r2, #12]
     cf4:	e58d2000 	str	r2, [sp]
     cf8:	e59f105c 	ldr	r1, [pc, #92]	; d5c <ETH_RX_SIZE+0x15c>
     cfc:	e59f2038 	ldr	r2, [pc, #56]	; d3c <ETH_RX_SIZE+0x13c>
     d00:	e3a00002 	mov	r0, #2
     d04:	fa0010e1 	blx	5090 <io_printf>
     d08:	e5963008 	ldr	r3, [r6, #8]
     d0c:	e58d3000 	str	r3, [sp]
     d10:	e59f2024 	ldr	r2, [pc, #36]	; d3c <ETH_RX_SIZE+0x13c>
     d14:	e3a03f92 	mov	r3, #584	; 0x248
     d18:	e59f1040 	ldr	r1, [pc, #64]	; d60 <ETH_RX_SIZE+0x160>
     d1c:	e3a00002 	mov	r0, #2
     d20:	fa0010da 	blx	5090 <io_printf>
     d24:	e28dd00c 	add	sp, sp, #12
     d28:	e8bd80f0 	pop	{r4, r5, r6, r7, pc}
     d2c:	0040057c 	.word	0x0040057c
     d30:	00400014 	.word	0x00400014
     d34:	00400550 	.word	0x00400550
     d38:	00000243 	.word	0x00000243
     d3c:	00006450 	.word	0x00006450
     d40:	00006510 	.word	0x00006510
     d44:	00006484 	.word	0x00006484
     d48:	00000245 	.word	0x00000245
     d4c:	000064a0 	.word	0x000064a0
     d50:	00000246 	.word	0x00000246
     d54:	000064bc 	.word	0x000064bc
     d58:	00000247 	.word	0x00000247
     d5c:	000064d8 	.word	0x000064d8
     d60:	000064f4 	.word	0x000064f4

00000d64 <verify_signal>:
     d64:	e59f3034 	ldr	r3, [pc, #52]	; da0 <verify_signal+0x3c>
     d68:	e5933004 	ldr	r3, [r3, #4]
     d6c:	e5932000 	ldr	r2, [r3]
     d70:	e1500002 	cmp	r0, r2
     d74:	1a000007 	bne	d98 <verify_signal+0x34>
     d78:	e5932004 	ldr	r2, [r3, #4]
     d7c:	e1500002 	cmp	r0, r2
     d80:	1a000004 	bne	d98 <verify_signal+0x34>
     d84:	e5933008 	ldr	r3, [r3, #8]
     d88:	e0600003 	rsb	r0, r0, r3
     d8c:	e16f0f10 	clz	r0, r0
     d90:	e1a002a0 	lsr	r0, r0, #5
     d94:	e12fff1e 	bx	lr
     d98:	e3a00000 	mov	r0, #0
     d9c:	e12fff1e 	bx	lr
     da0:	0040057c 	.word	0x0040057c

00000da4 <send_signal>:
     da4:	e92d43f0 	push	{r4, r5, r6, r7, r8, r9, lr}
     da8:	e59f71c0 	ldr	r7, [pc, #448]	; f70 <RTR_TST2+0x6c>
     dac:	e3a03000 	mov	r3, #0
     db0:	e24dd00c 	sub	sp, sp, #12
     db4:	e1a06000 	mov	r6, r0
     db8:	e1a05001 	mov	r5, r1
     dbc:	e587300c 	str	r3, [r7, #12]
     dc0:	e5873010 	str	r3, [r7, #16]
     dc4:	e59f41a8 	ldr	r4, [pc, #424]	; f74 <RTR_TST2+0x70>
     dc8:	ea000000 	b	dd0 <send_signal+0x2c>
     dcc:	fa0012fc 	blx	59c4 <spin1_delay_us>
     dd0:	e5943000 	ldr	r3, [r4]
     dd4:	e3a02001 	mov	r2, #1
     dd8:	e5930004 	ldr	r0, [r3, #4]
     ddc:	e1a01005 	mov	r1, r5
     de0:	fa001364 	blx	5b78 <spin1_send_mc_packet>
     de4:	e3500000 	cmp	r0, #0
     de8:	e3a00001 	mov	r0, #1
     dec:	0afffff6 	beq	dcc <send_signal+0x28>
     df0:	e3a03000 	mov	r3, #0
     df4:	e587300c 	str	r3, [r7, #12]
     df8:	e5873010 	str	r3, [r7, #16]
     dfc:	ea000000 	b	e04 <send_signal+0x60>
     e00:	fa0012ef 	blx	59c4 <spin1_delay_us>
     e04:	e5943000 	ldr	r3, [r4]
     e08:	e3a02001 	mov	r2, #1
     e0c:	e5930004 	ldr	r0, [r3, #4]
     e10:	e1a01005 	mov	r1, r5
     e14:	fa001357 	blx	5b78 <spin1_send_mc_packet>
     e18:	e3500000 	cmp	r0, #0
     e1c:	e3a00001 	mov	r0, #1
     e20:	0afffff6 	beq	e00 <send_signal+0x5c>
     e24:	e3a03000 	mov	r3, #0
     e28:	e587300c 	str	r3, [r7, #12]
     e2c:	e5873010 	str	r3, [r7, #16]
     e30:	ea000000 	b	e38 <send_signal+0x94>
     e34:	fa0012e2 	blx	59c4 <spin1_delay_us>
     e38:	e5943000 	ldr	r3, [r4]
     e3c:	e3a02001 	mov	r2, #1
     e40:	e5930004 	ldr	r0, [r3, #4]
     e44:	e1a01005 	mov	r1, r5
     e48:	fa00134a 	blx	5b78 <spin1_send_mc_packet>
     e4c:	e3500000 	cmp	r0, #0
     e50:	e3a00001 	mov	r0, #1
     e54:	0afffff6 	beq	e34 <send_signal+0x90>
     e58:	e59f9118 	ldr	r9, [pc, #280]	; f78 <RTR_TST2+0x74>
     e5c:	e3a03000 	mov	r3, #0
     e60:	e5998000 	ldr	r8, [r9]
     e64:	e587300c 	str	r3, [r7, #12]
     e68:	e5873010 	str	r3, [r7, #16]
     e6c:	ea000000 	b	e74 <send_signal+0xd0>
     e70:	fa0012d3 	blx	59c4 <spin1_delay_us>
     e74:	e5943000 	ldr	r3, [r4]
     e78:	e3a02001 	mov	r2, #1
     e7c:	e5930004 	ldr	r0, [r3, #4]
     e80:	e1a01008 	mov	r1, r8
     e84:	fa00133b 	blx	5b78 <spin1_send_mc_packet>
     e88:	e3500000 	cmp	r0, #0
     e8c:	e3a00001 	mov	r0, #1
     e90:	0afffff6 	beq	e70 <send_signal+0xcc>
     e94:	e3a03000 	mov	r3, #0
     e98:	e587300c 	str	r3, [r7, #12]
     e9c:	e5873010 	str	r3, [r7, #16]
     ea0:	ea000000 	b	ea8 <send_signal+0x104>
     ea4:	fa0012c6 	blx	59c4 <spin1_delay_us>
     ea8:	e5943000 	ldr	r3, [r4]
     eac:	e3a02001 	mov	r2, #1
     eb0:	e5930004 	ldr	r0, [r3, #4]
     eb4:	e1a01006 	mov	r1, r6
     eb8:	fa00132e 	blx	5b78 <spin1_send_mc_packet>
     ebc:	e3500000 	cmp	r0, #0
     ec0:	e3a00001 	mov	r0, #1
     ec4:	0afffff6 	beq	ea4 <send_signal+0x100>
     ec8:	e5973000 	ldr	r3, [r7]
     ecc:	e2433065 	sub	r3, r3, #101	; 0x65
     ed0:	e3530030 	cmp	r3, #48	; 0x30
     ed4:	8a000023 	bhi	f68 <RTR_TST2+0x64>
     ed8:	e59f309c 	ldr	r3, [pc, #156]	; f7c <RTR_TST2+0x78>
     edc:	e59f209c 	ldr	r2, [pc, #156]	; f80 <RTR_TST2+0x7c>
     ee0:	e59f109c 	ldr	r1, [pc, #156]	; f84 <RTR_TST2+0x80>
     ee4:	e3a00002 	mov	r0, #2
     ee8:	fa001068 	blx	5090 <io_printf>
     eec:	e59f3094 	ldr	r3, [pc, #148]	; f88 <RTR_TST2+0x84>
     ef0:	e59f2088 	ldr	r2, [pc, #136]	; f80 <RTR_TST2+0x7c>
     ef4:	e59f1090 	ldr	r1, [pc, #144]	; f8c <RTR_TST2+0x88>
     ef8:	e3a00002 	mov	r0, #2
     efc:	e58d5000 	str	r5, [sp]
     f00:	fa001062 	blx	5090 <io_printf>
     f04:	e59f3084 	ldr	r3, [pc, #132]	; f90 <RTR_TST2+0x8c>
     f08:	e59f2070 	ldr	r2, [pc, #112]	; f80 <RTR_TST2+0x7c>
     f0c:	e59f1080 	ldr	r1, [pc, #128]	; f94 <RTR_TST2+0x90>
     f10:	e3a00002 	mov	r0, #2
     f14:	e58d5000 	str	r5, [sp]
     f18:	fa00105c 	blx	5090 <io_printf>
     f1c:	e3a03f9b 	mov	r3, #620	; 0x26c
     f20:	e59f2058 	ldr	r2, [pc, #88]	; f80 <RTR_TST2+0x7c>
     f24:	e59f106c 	ldr	r1, [pc, #108]	; f98 <RTR_TST2+0x94>
     f28:	e3a00002 	mov	r0, #2
     f2c:	e58d5000 	str	r5, [sp]
     f30:	fa001056 	blx	5090 <io_printf>
     f34:	e5993000 	ldr	r3, [r9]
     f38:	e58d3000 	str	r3, [sp]
     f3c:	e59f203c 	ldr	r2, [pc, #60]	; f80 <RTR_TST2+0x7c>
     f40:	e59f3054 	ldr	r3, [pc, #84]	; f9c <RTR_TST2+0x98>
     f44:	e59f1054 	ldr	r1, [pc, #84]	; fa0 <RTR_TST2+0x9c>
     f48:	e3a00002 	mov	r0, #2
     f4c:	fa00104f 	blx	5090 <io_printf>
     f50:	e58d6000 	str	r6, [sp]
     f54:	e59f3048 	ldr	r3, [pc, #72]	; fa4 <RTR_TST2+0xa0>
     f58:	e59f2020 	ldr	r2, [pc, #32]	; f80 <RTR_TST2+0x7c>
     f5c:	e59f1044 	ldr	r1, [pc, #68]	; fa8 <RTR_TST2+0xa4>
     f60:	e3a00002 	mov	r0, #2
     f64:	fa001049 	blx	5090 <io_printf>
     f68:	e28dd00c 	add	sp, sp, #12
     f6c:	e8bd83f0 	pop	{r4, r5, r6, r7, r8, r9, pc}
     f70:	00400014 	.word	0x00400014
     f74:	00400550 	.word	0x00400550
     f78:	00400594 	.word	0x00400594
     f7c:	00000269 	.word	0x00000269
     f80:	00006450 	.word	0x00006450
     f84:	00006530 	.word	0x00006530
     f88:	0000026a 	.word	0x0000026a
     f8c:	00006484 	.word	0x00006484
     f90:	0000026b 	.word	0x0000026b
     f94:	000064a0 	.word	0x000064a0
     f98:	000064bc 	.word	0x000064bc
     f9c:	0000026d 	.word	0x0000026d
     fa0:	000064d8 	.word	0x000064d8
     fa4:	0000026e 	.word	0x0000026e
     fa8:	000064f4 	.word	0x000064f4

00000fac <send_function_signal>:
     fac:	e92d41f0 	push	{r4, r5, r6, r7, r8, lr}
     fb0:	e59f81b8 	ldr	r8, [pc, #440]	; 1170 <SV_SIZE+0x170>
     fb4:	e3a03000 	mov	r3, #0
     fb8:	e24dd008 	sub	sp, sp, #8
     fbc:	e1a05000 	mov	r5, r0
     fc0:	e1a07001 	mov	r7, r1
     fc4:	e1a06002 	mov	r6, r2
     fc8:	e588300c 	str	r3, [r8, #12]
     fcc:	e5883010 	str	r3, [r8, #16]
     fd0:	e59f419c 	ldr	r4, [pc, #412]	; 1174 <SV_SIZE+0x174>
     fd4:	ea000000 	b	fdc <send_function_signal+0x30>
     fd8:	fa001279 	blx	59c4 <spin1_delay_us>
     fdc:	e5943000 	ldr	r3, [r4]
     fe0:	e3a02001 	mov	r2, #1
     fe4:	e5930004 	ldr	r0, [r3, #4]
     fe8:	e1a01005 	mov	r1, r5
     fec:	fa0012e1 	blx	5b78 <spin1_send_mc_packet>
     ff0:	e3500000 	cmp	r0, #0
     ff4:	e3a00001 	mov	r0, #1
     ff8:	0afffff6 	beq	fd8 <send_function_signal+0x2c>
     ffc:	e3a03000 	mov	r3, #0
    1000:	e588300c 	str	r3, [r8, #12]
    1004:	e5883010 	str	r3, [r8, #16]
    1008:	ea000000 	b	1010 <SV_SIZE+0x10>
    100c:	fa00126c 	blx	59c4 <spin1_delay_us>
    1010:	e5943000 	ldr	r3, [r4]
    1014:	e3a02001 	mov	r2, #1
    1018:	e5930004 	ldr	r0, [r3, #4]
    101c:	e1a01005 	mov	r1, r5
    1020:	fa0012d4 	blx	5b78 <spin1_send_mc_packet>
    1024:	e3500000 	cmp	r0, #0
    1028:	e3a00001 	mov	r0, #1
    102c:	0afffff6 	beq	100c <SV_SIZE+0xc>
    1030:	e3a03000 	mov	r3, #0
    1034:	e588300c 	str	r3, [r8, #12]
    1038:	e5883010 	str	r3, [r8, #16]
    103c:	ea000000 	b	1044 <SV_SIZE+0x44>
    1040:	fa00125f 	blx	59c4 <spin1_delay_us>
    1044:	e5943000 	ldr	r3, [r4]
    1048:	e3a02001 	mov	r2, #1
    104c:	e5930004 	ldr	r0, [r3, #4]
    1050:	e1a01005 	mov	r1, r5
    1054:	fa0012c7 	blx	5b78 <spin1_send_mc_packet>
    1058:	e3500000 	cmp	r0, #0
    105c:	e3a00001 	mov	r0, #1
    1060:	0afffff6 	beq	1040 <SV_SIZE+0x40>
    1064:	e3a03000 	mov	r3, #0
    1068:	e588300c 	str	r3, [r8, #12]
    106c:	e5883010 	str	r3, [r8, #16]
    1070:	ea000000 	b	1078 <SV_SIZE+0x78>
    1074:	fa001252 	blx	59c4 <spin1_delay_us>
    1078:	e5943000 	ldr	r3, [r4]
    107c:	e3a02001 	mov	r2, #1
    1080:	e5930004 	ldr	r0, [r3, #4]
    1084:	e1a01007 	mov	r1, r7
    1088:	fa0012ba 	blx	5b78 <spin1_send_mc_packet>
    108c:	e3500000 	cmp	r0, #0
    1090:	e3a00001 	mov	r0, #1
    1094:	0afffff6 	beq	1074 <SV_SIZE+0x74>
    1098:	e3a03000 	mov	r3, #0
    109c:	e588300c 	str	r3, [r8, #12]
    10a0:	e5883010 	str	r3, [r8, #16]
    10a4:	ea000000 	b	10ac <SV_SIZE+0xac>
    10a8:	fa001245 	blx	59c4 <spin1_delay_us>
    10ac:	e5943000 	ldr	r3, [r4]
    10b0:	e3a02001 	mov	r2, #1
    10b4:	e5930004 	ldr	r0, [r3, #4]
    10b8:	e1a01006 	mov	r1, r6
    10bc:	fa0012ad 	blx	5b78 <spin1_send_mc_packet>
    10c0:	e3500000 	cmp	r0, #0
    10c4:	e3a00001 	mov	r0, #1
    10c8:	0afffff6 	beq	10a8 <SV_SIZE+0xa8>
    10cc:	e5983000 	ldr	r3, [r8]
    10d0:	e2433065 	sub	r3, r3, #101	; 0x65
    10d4:	e3530030 	cmp	r3, #48	; 0x30
    10d8:	8a000022 	bhi	1168 <SV_SIZE+0x168>
    10dc:	e59f3094 	ldr	r3, [pc, #148]	; 1178 <SV_SIZE+0x178>
    10e0:	e59f2094 	ldr	r2, [pc, #148]	; 117c <SV_SIZE+0x17c>
    10e4:	e59f1094 	ldr	r1, [pc, #148]	; 1180 <SV_SIZE+0x180>
    10e8:	e3a00002 	mov	r0, #2
    10ec:	fa000fe7 	blx	5090 <io_printf>
    10f0:	e59f308c 	ldr	r3, [pc, #140]	; 1184 <SV_SIZE+0x184>
    10f4:	e59f2080 	ldr	r2, [pc, #128]	; 117c <SV_SIZE+0x17c>
    10f8:	e59f1088 	ldr	r1, [pc, #136]	; 1188 <SV_SIZE+0x188>
    10fc:	e3a00002 	mov	r0, #2
    1100:	e58d5000 	str	r5, [sp]
    1104:	fa000fe1 	blx	5090 <io_printf>
    1108:	e59f307c 	ldr	r3, [pc, #124]	; 118c <SV_SIZE+0x18c>
    110c:	e59f2068 	ldr	r2, [pc, #104]	; 117c <SV_SIZE+0x17c>
    1110:	e59f1078 	ldr	r1, [pc, #120]	; 1190 <SV_SIZE+0x190>
    1114:	e3a00002 	mov	r0, #2
    1118:	e58d5000 	str	r5, [sp]
    111c:	fa000fdb 	blx	5090 <io_printf>
    1120:	e3a03fa1 	mov	r3, #644	; 0x284
    1124:	e59f2050 	ldr	r2, [pc, #80]	; 117c <SV_SIZE+0x17c>
    1128:	e59f1064 	ldr	r1, [pc, #100]	; 1194 <SV_SIZE+0x194>
    112c:	e3a00002 	mov	r0, #2
    1130:	e58d5000 	str	r5, [sp]
    1134:	fa000fd5 	blx	5090 <io_printf>
    1138:	e59f3058 	ldr	r3, [pc, #88]	; 1198 <SV_SIZE+0x198>
    113c:	e59f2038 	ldr	r2, [pc, #56]	; 117c <SV_SIZE+0x17c>
    1140:	e59f1054 	ldr	r1, [pc, #84]	; 119c <SV_SIZE+0x19c>
    1144:	e3a00002 	mov	r0, #2
    1148:	e58d7000 	str	r7, [sp]
    114c:	fa000fcf 	blx	5090 <io_printf>
    1150:	e58d6000 	str	r6, [sp]
    1154:	e59f3044 	ldr	r3, [pc, #68]	; 11a0 <SV_SIZE+0x1a0>
    1158:	e59f201c 	ldr	r2, [pc, #28]	; 117c <SV_SIZE+0x17c>
    115c:	e59f1040 	ldr	r1, [pc, #64]	; 11a4 <SV_SIZE+0x1a4>
    1160:	e3a00002 	mov	r0, #2
    1164:	fa000fc9 	blx	5090 <io_printf>
    1168:	e28dd008 	add	sp, sp, #8
    116c:	e8bd81f0 	pop	{r4, r5, r6, r7, r8, pc}
    1170:	00400014 	.word	0x00400014
    1174:	00400550 	.word	0x00400550
    1178:	00000281 	.word	0x00000281
    117c:	00006450 	.word	0x00006450
    1180:	0000654c 	.word	0x0000654c
    1184:	00000282 	.word	0x00000282
    1188:	00006484 	.word	0x00006484
    118c:	00000283 	.word	0x00000283
    1190:	000064a0 	.word	0x000064a0
    1194:	000064bc 	.word	0x000064bc
    1198:	00000285 	.word	0x00000285
    119c:	000064d8 	.word	0x000064d8
    11a0:	00000286 	.word	0x00000286
    11a4:	000064f4 	.word	0x000064f4

000011a8 <index_initialise_index>:
    11a8:	e92d4ff0 	push	{r4, r5, r6, r7, r8, r9, sl, fp, lr}
    11ac:	e59fb360 	ldr	fp, [pc, #864]	; 1514 <index_initialise_index+0x36c>
    11b0:	e24dd00c 	sub	sp, sp, #12
    11b4:	e59b0008 	ldr	r0, [fp, #8]
    11b8:	e59f9358 	ldr	r9, [pc, #856]	; 1518 <index_initialise_index+0x370>
    11bc:	e1a00100 	lsl	r0, r0, #2
    11c0:	fa001276 	blx	5ba0 <spin1_malloc>
    11c4:	e3a07000 	mov	r7, #0
    11c8:	e5890000 	str	r0, [r9]
    11cc:	e3a00010 	mov	r0, #16
    11d0:	fa001272 	blx	5ba0 <spin1_malloc>
    11d4:	e5897008 	str	r7, [r9, #8]
    11d8:	e589700c 	str	r7, [r9, #12]
    11dc:	e5897010 	str	r7, [r9, #16]
    11e0:	e5897014 	str	r7, [r9, #20]
    11e4:	e5890004 	str	r0, [r9, #4]
    11e8:	e3a00014 	mov	r0, #20
    11ec:	fa00126b 	blx	5ba0 <spin1_malloc>
    11f0:	e59f3324 	ldr	r3, [pc, #804]	; 151c <index_initialise_index+0x374>
    11f4:	e5830000 	str	r0, [r3]
    11f8:	e59f3320 	ldr	r3, [pc, #800]	; 1520 <index_initialise_index+0x378>
    11fc:	e1c070b6 	strh	r7, [r0, #6]
    1200:	e5830000 	str	r0, [r3]
    1204:	e59f3318 	ldr	r3, [pc, #792]	; 1524 <index_initialise_index+0x37c>
    1208:	e1c070b8 	strh	r7, [r0, #8]
    120c:	e1c070ba 	strh	r7, [r0, #10]
    1210:	e1c070bc 	strh	r7, [r0, #12]
    1214:	e1c070be 	strh	r7, [r0, #14]
    1218:	e5c07004 	strb	r7, [r0, #4]
    121c:	e5837000 	str	r7, [r3]
    1220:	eb00080e 	bl	3260 <data_specification_get_data_address>
    1224:	e1a01000 	mov	r1, r0
    1228:	e3a00001 	mov	r0, #1
    122c:	eb000841 	bl	3338 <data_specification_get_region>
    1230:	e59b3008 	ldr	r3, [fp, #8]
    1234:	e1530007 	cmp	r3, r7
    1238:	13a06001 	movne	r6, #1
    123c:	11a0a006 	movne	sl, r6
    1240:	13a03007 	movne	r3, #7
    1244:	11a04000 	movne	r4, r0
    1248:	1a00002f 	bne	130c <index_initialise_index+0x164>
    124c:	ea00009b 	b	14c0 <index_initialise_index+0x318>
    1250:	e3510000 	cmp	r1, #0
    1254:	0a000019 	beq	12c0 <index_initialise_index+0x118>
    1258:	e3a03000 	mov	r3, #0
    125c:	e593c000 	ldr	ip, [r3]
    1260:	e5903000 	ldr	r3, [r0]
    1264:	e153000c 	cmp	r3, ip
    1268:	1a000051 	bne	13b4 <index_initialise_index+0x20c>
    126c:	e3510001 	cmp	r1, #1
    1270:	0a000012 	beq	12c0 <index_initialise_index+0x118>
    1274:	e3a03000 	mov	r3, #0
    1278:	e593e004 	ldr	lr, [r3, #4]
    127c:	e5903004 	ldr	r3, [r0, #4]
    1280:	e15e0003 	cmp	lr, r3
    1284:	1a00004a 	bne	13b4 <index_initialise_index+0x20c>
    1288:	e3510002 	cmp	r1, #2
    128c:	0a00000b 	beq	12c0 <index_initialise_index+0x118>
    1290:	e3a03000 	mov	r3, #0
    1294:	e5933008 	ldr	r3, [r3, #8]
    1298:	e590e008 	ldr	lr, [r0, #8]
    129c:	e15e0003 	cmp	lr, r3
    12a0:	1a000043 	bne	13b4 <index_initialise_index+0x20c>
    12a4:	e3510004 	cmp	r1, #4
    12a8:	1a000004 	bne	12c0 <index_initialise_index+0x118>
    12ac:	e3a03000 	mov	r3, #0
    12b0:	e590100c 	ldr	r1, [r0, #12]
    12b4:	e593300c 	ldr	r3, [r3, #12]
    12b8:	e1510003 	cmp	r1, r3
    12bc:	1a00003c 	bne	13b4 <index_initialise_index+0x20c>
    12c0:	e5993000 	ldr	r3, [r9]
    12c4:	e1d210b6 	ldrh	r1, [r2, #6]
    12c8:	e18310b7 	strh	r1, [r3, r7]
    12cc:	e1d230b8 	ldrh	r3, [r2, #8]
    12d0:	e1c260be 	strh	r6, [r2, #14]
    12d4:	e2833001 	add	r3, r3, #1
    12d8:	e1a03803 	lsl	r3, r3, #16
    12dc:	e1a03823 	lsr	r3, r3, #16
    12e0:	e3530000 	cmp	r3, #0
    12e4:	e1c230b8 	strh	r3, [r2, #8]
    12e8:	e1c230ba 	strh	r3, [r2, #10]
    12ec:	0a000085 	beq	1508 <index_initialise_index+0x360>
    12f0:	e59b3008 	ldr	r3, [fp, #8]
    12f4:	e2877002 	add	r7, r7, #2
    12f8:	e1530006 	cmp	r3, r6
    12fc:	e2844010 	add	r4, r4, #16
    1300:	e1a03005 	mov	r3, r5
    1304:	e2866001 	add	r6, r6, #1
    1308:	9a00006c 	bls	14c0 <index_initialise_index+0x318>
    130c:	e2835004 	add	r5, r3, #4
    1310:	e1550003 	cmp	r5, r3
    1314:	9a000010 	bls	135c <index_initialise_index+0x1b4>
    1318:	e2832001 	add	r2, r3, #1
    131c:	e1550002 	cmp	r5, r2
    1320:	e3a01000 	mov	r1, #0
    1324:	e594201c 	ldr	r2, [r4, #28]
    1328:	e5812000 	str	r2, [r1]
    132c:	9a00000a 	bls	135c <index_initialise_index+0x1b4>
    1330:	e2832002 	add	r2, r3, #2
    1334:	e1550002 	cmp	r5, r2
    1338:	e5942020 	ldr	r2, [r4, #32]
    133c:	e5812004 	str	r2, [r1, #4]
    1340:	9a000005 	bls	135c <index_initialise_index+0x1b4>
    1344:	e2833003 	add	r3, r3, #3
    1348:	e1550003 	cmp	r5, r3
    134c:	e5943024 	ldr	r3, [r4, #36]	; 0x24
    1350:	e5813008 	str	r3, [r1, #8]
    1354:	85943028 	ldrhi	r3, [r4, #40]	; 0x28
    1358:	8581300c 	strhi	r3, [r1, #12]
    135c:	e59f31b8 	ldr	r3, [pc, #440]	; 151c <index_initialise_index+0x374>
    1360:	e5932000 	ldr	r2, [r3]
    1364:	e1d230b8 	ldrh	r3, [r2, #8]
    1368:	e3530000 	cmp	r3, #0
    136c:	03a01000 	moveq	r1, #0
    1370:	0591c000 	ldreq	ip, [r1]
    1374:	0a000012 	beq	13c4 <index_initialise_index+0x21c>
    1378:	e5d21004 	ldrb	r1, [r2, #4]
    137c:	e5920000 	ldr	r0, [r2]
    1380:	e3510003 	cmp	r1, #3
    1384:	9affffb1 	bls	1250 <index_initialise_index+0xa8>
    1388:	e3a03000 	mov	r3, #0
    138c:	e593c000 	ldr	ip, [r3]
    1390:	e5903000 	ldr	r3, [r0]
    1394:	e153000c 	cmp	r3, ip
    1398:	1a000005 	bne	13b4 <index_initialise_index+0x20c>
    139c:	e3a03000 	mov	r3, #0
    13a0:	e5933004 	ldr	r3, [r3, #4]
    13a4:	e5901004 	ldr	r1, [r0, #4]
    13a8:	e1510003 	cmp	r1, r3
    13ac:	03a01004 	moveq	r1, #4
    13b0:	0affffb6 	beq	1290 <index_initialise_index+0xe8>
    13b4:	e5922010 	ldr	r2, [r2, #16]
    13b8:	e1d230b8 	ldrh	r3, [r2, #8]
    13bc:	e3530000 	cmp	r3, #0
    13c0:	1affffec 	bne	1378 <index_initialise_index+0x1d0>
    13c4:	e59f3154 	ldr	r3, [pc, #340]	; 1520 <index_initialise_index+0x378>
    13c8:	e5832000 	str	r2, [r3]
    13cc:	e5993000 	ldr	r3, [r9]
    13d0:	e59f2150 	ldr	r2, [pc, #336]	; 1528 <index_initialise_index+0x380>
    13d4:	e183a0b7 	strh	sl, [r3, r7]
    13d8:	e59f3140 	ldr	r3, [pc, #320]	; 1520 <index_initialise_index+0x378>
    13dc:	e15c0002 	cmp	ip, r2
    13e0:	e5938000 	ldr	r8, [r3]
    13e4:	0a000039 	beq	14d0 <index_initialise_index+0x328>
    13e8:	e3a01000 	mov	r1, #0
    13ec:	e5913004 	ldr	r3, [r1, #4]
    13f0:	e1530002 	cmp	r3, r2
    13f4:	0a00003f 	beq	14f8 <index_initialise_index+0x350>
    13f8:	e5913008 	ldr	r3, [r1, #8]
    13fc:	e1530002 	cmp	r3, r2
    1400:	0a000038 	beq	14e8 <index_initialise_index+0x340>
    1404:	e591300c 	ldr	r3, [r1, #12]
    1408:	e1530002 	cmp	r3, r2
    140c:	03a03003 	moveq	r3, #3
    1410:	01a02003 	moveq	r2, r3
    1414:	03a0000c 	moveq	r0, #12
    1418:	13a03004 	movne	r3, #4
    141c:	11a02003 	movne	r2, r3
    1420:	13a00010 	movne	r0, #16
    1424:	e5c83004 	strb	r3, [r8, #4]
    1428:	e58d2004 	str	r2, [sp, #4]
    142c:	fa0011db 	blx	5ba0 <spin1_malloc>
    1430:	e59d2004 	ldr	r2, [sp, #4]
    1434:	e3a01000 	mov	r1, #0
    1438:	e3520000 	cmp	r2, #0
    143c:	11a02102 	lslne	r2, r2, #2
    1440:	03a02004 	moveq	r2, #4
    1444:	eb00133c 	bl	613c <memcpy>
    1448:	e1a03000 	mov	r3, r0
    144c:	e1a02806 	lsl	r2, r6, #16
    1450:	e1a02822 	lsr	r2, r2, #16
    1454:	e3a01001 	mov	r1, #1
    1458:	e5883000 	str	r3, [r8]
    145c:	e2423001 	sub	r3, r2, #1
    1460:	e1c8a0b6 	strh	sl, [r8, #6]
    1464:	e1c820be 	strh	r2, [r8, #14]
    1468:	e1c830bc 	strh	r3, [r8, #12]
    146c:	e1c810b8 	strh	r1, [r8, #8]
    1470:	e1c810ba 	strh	r1, [r8, #10]
    1474:	e3a00014 	mov	r0, #20
    1478:	fa0011c8 	blx	5ba0 <spin1_malloc>
    147c:	e3e02000 	mvn	r2, #0
    1480:	e59f309c 	ldr	r3, [pc, #156]	; 1524 <index_initialise_index+0x37c>
    1484:	e5933000 	ldr	r3, [r3]
    1488:	e2833001 	add	r3, r3, #1
    148c:	e5880010 	str	r0, [r8, #16]
    1490:	e1c020b6 	strh	r2, [r0, #6]
    1494:	e3a02000 	mov	r2, #0
    1498:	e1c020b8 	strh	r2, [r0, #8]
    149c:	e1c020bc 	strh	r2, [r0, #12]
    14a0:	e1c020be 	strh	r2, [r0, #14]
    14a4:	e59f2074 	ldr	r2, [pc, #116]	; 1520 <index_initialise_index+0x378>
    14a8:	e589a014 	str	sl, [r9, #20]
    14ac:	e5820000 	str	r0, [r2]
    14b0:	e59f206c 	ldr	r2, [pc, #108]	; 1524 <index_initialise_index+0x37c>
    14b4:	e28aa001 	add	sl, sl, #1
    14b8:	e5823000 	str	r3, [r2]
    14bc:	eaffff8b 	b	12f0 <index_initialise_index+0x148>
    14c0:	e3a03001 	mov	r3, #1
    14c4:	e5893010 	str	r3, [r9, #16]
    14c8:	e28dd00c 	add	sp, sp, #12
    14cc:	e8bd8ff0 	pop	{r4, r5, r6, r7, r8, r9, sl, fp, pc}
    14d0:	e3a03000 	mov	r3, #0
    14d4:	e5c83004 	strb	r3, [r8, #4]
    14d8:	e3a00000 	mov	r0, #0
    14dc:	fa0011af 	blx	5ba0 <spin1_malloc>
    14e0:	e1a03000 	mov	r3, r0
    14e4:	eaffffd8 	b	144c <index_initialise_index+0x2a4>
    14e8:	e3a03002 	mov	r3, #2
    14ec:	e1a02003 	mov	r2, r3
    14f0:	e3a00008 	mov	r0, #8
    14f4:	eaffffca 	b	1424 <index_initialise_index+0x27c>
    14f8:	e3a03001 	mov	r3, #1
    14fc:	e1a02003 	mov	r2, r3
    1500:	e3a00004 	mov	r0, #4
    1504:	eaffffc6 	b	1424 <index_initialise_index+0x27c>
    1508:	e3a01000 	mov	r1, #0
    150c:	e591c000 	ldr	ip, [r1]
    1510:	eaffffad 	b	13cc <index_initialise_index+0x224>
    1514:	00400594 	.word	0x00400594
    1518:	0040057c 	.word	0x0040057c
    151c:	00400554 	.word	0x00400554
    1520:	0040055c 	.word	0x0040055c
    1524:	004005b4 	.word	0x004005b4
    1528:	20202020 	.word	0x20202020

0000152c <start_processing>:
    152c:	e92d4030 	push	{r4, r5, lr}
    1530:	e59f40a4 	ldr	r4, [pc, #164]	; 15dc <start_processing+0xb0>
    1534:	e24dd014 	sub	sp, sp, #20
    1538:	e5943018 	ldr	r3, [r4, #24]
    153c:	e3530001 	cmp	r3, #1
    1540:	0a000009 	beq	156c <start_processing+0x40>
    1544:	e3530002 	cmp	r3, #2
    1548:	1a000005 	bne	1564 <start_processing+0x38>
    154c:	ebffff15 	bl	11a8 <index_initialise_index>
    1550:	e59f3088 	ldr	r3, [pc, #136]	; 15e0 <start_processing+0xb4>
    1554:	e3a02001 	mov	r2, #1
    1558:	e3a00000 	mov	r0, #0
    155c:	e5832000 	str	r2, [r3]
    1560:	ebfffcd7 	bl	8c4 <send_string>
    1564:	e28dd014 	add	sp, sp, #20
    1568:	e8bd8030 	pop	{r4, r5, pc}
    156c:	e5943014 	ldr	r3, [r4, #20]
    1570:	e3530001 	cmp	r3, #1
    1574:	1afffffa 	bne	1564 <start_processing+0x38>
    1578:	e28d1004 	add	r1, sp, #4
    157c:	e3a0200a 	mov	r2, #10
    1580:	e5940008 	ldr	r0, [r4, #8]
    1584:	eb0012eb 	bl	6138 <itoa>
    1588:	e3a0200a 	mov	r2, #10
    158c:	e28d1004 	add	r1, sp, #4
    1590:	e3a00000 	mov	r0, #0
    1594:	eb0009b2 	bl	3c64 <recording_record>
    1598:	e59f3044 	ldr	r3, [pc, #68]	; 15e4 <start_processing+0xb8>
    159c:	e3a02000 	mov	r2, #0
    15a0:	e5945008 	ldr	r5, [r4, #8]
    15a4:	e583200c 	str	r2, [r3, #12]
    15a8:	e5832010 	str	r2, [r3, #16]
    15ac:	e59f4034 	ldr	r4, [pc, #52]	; 15e8 <start_processing+0xbc>
    15b0:	ea000000 	b	15b8 <start_processing+0x8c>
    15b4:	fa001102 	blx	59c4 <spin1_delay_us>
    15b8:	e5943000 	ldr	r3, [r4]
    15bc:	e3a02001 	mov	r2, #1
    15c0:	e5930000 	ldr	r0, [r3]
    15c4:	e1a01005 	mov	r1, r5
    15c8:	fa00116a 	blx	5b78 <spin1_send_mc_packet>
    15cc:	e3500000 	cmp	r0, #0
    15d0:	e3a00001 	mov	r0, #1
    15d4:	0afffff6 	beq	15b4 <start_processing+0x88>
    15d8:	eaffffe1 	b	1564 <start_processing+0x38>
    15dc:	00400594 	.word	0x00400594
    15e0:	00400574 	.word	0x00400574
    15e4:	00400014 	.word	0x00400014
    15e8:	00400550 	.word	0x00400550

000015ec <index_leader_awaits_reports>:
    15ec:	e92d4070 	push	{r4, r5, r6, lr}
    15f0:	e59f30f8 	ldr	r3, [pc, #248]	; 16f0 <index_leader_awaits_reports+0x104>
    15f4:	e59f40f8 	ldr	r4, [pc, #248]	; 16f4 <index_leader_awaits_reports+0x108>
    15f8:	e5933000 	ldr	r3, [r3]
    15fc:	e59f10f4 	ldr	r1, [pc, #244]	; 16f8 <index_leader_awaits_reports+0x10c>
    1600:	e594c000 	ldr	ip, [r4]
    1604:	e5912000 	ldr	r2, [r1]
    1608:	e153000c 	cmp	r3, ip
    160c:	13a0300e 	movne	r3, #14
    1610:	03a0300f 	moveq	r3, #15
    1614:	e3700001 	cmn	r0, #1
    1618:	02822001 	addeq	r2, r2, #1
    161c:	05812000 	streq	r2, [r1]
    1620:	e1530002 	cmp	r3, r2
    1624:	18bd8070 	popne	{r4, r5, r6, pc}
    1628:	e3a03000 	mov	r3, #0
    162c:	e31c000f 	tst	ip, #15
    1630:	e59f50c4 	ldr	r5, [pc, #196]	; 16fc <index_leader_awaits_reports+0x110>
    1634:	e5813000 	str	r3, [r1]
    1638:	1a00001d 	bne	16b4 <index_leader_awaits_reports+0xc8>
    163c:	e59f30bc 	ldr	r3, [pc, #188]	; 1700 <index_leader_awaits_reports+0x114>
    1640:	e5950000 	ldr	r0, [r5]
    1644:	e5933014 	ldr	r3, [r3, #20]
    1648:	e2800001 	add	r0, r0, #1
    164c:	e1500003 	cmp	r0, r3
    1650:	e5850000 	str	r0, [r5]
    1654:	8a00000f 	bhi	1698 <index_leader_awaits_reports+0xac>
    1658:	e59f30a4 	ldr	r3, [pc, #164]	; 1704 <index_leader_awaits_reports+0x118>
    165c:	e5933000 	ldr	r3, [r3]
    1660:	e1d320b8 	ldrh	r2, [r3, #8]
    1664:	e3520000 	cmp	r2, #0
    1668:	1a000004 	bne	1680 <index_leader_awaits_reports+0x94>
    166c:	ea00001d 	b	16e8 <index_leader_awaits_reports+0xfc>
    1670:	e5933010 	ldr	r3, [r3, #16]
    1674:	e1d320b8 	ldrh	r2, [r3, #8]
    1678:	e3520000 	cmp	r2, #0
    167c:	0a000019 	beq	16e8 <index_leader_awaits_reports+0xfc>
    1680:	e1d320b6 	ldrh	r2, [r3, #6]
    1684:	e1500002 	cmp	r0, r2
    1688:	1afffff8 	bne	1670 <index_leader_awaits_reports+0x84>
    168c:	e1d300bc 	ldrh	r0, [r3, #12]
    1690:	e8bd4070 	pop	{r4, r5, r6, lr}
    1694:	eafffc8a 	b	8c4 <send_string>
    1698:	e3a01000 	mov	r1, #0
    169c:	ebfffdc0 	bl	da4 <send_signal>
    16a0:	e59f2060 	ldr	r2, [pc, #96]	; 1708 <index_leader_awaits_reports+0x11c>
    16a4:	e3a03001 	mov	r3, #1
    16a8:	e5823000 	str	r3, [r2]
    16ac:	e5843000 	str	r3, [r4]
    16b0:	e8bd8070 	pop	{r4, r5, r6, pc}
    16b4:	e5953000 	ldr	r3, [r5]
    16b8:	e3a01001 	mov	r1, #1
    16bc:	e0833001 	add	r3, r3, r1
    16c0:	e1a00003 	mov	r0, r3
    16c4:	e5853000 	str	r3, [r5]
    16c8:	ebfffdb5 	bl	da4 <send_signal>
    16cc:	e5942000 	ldr	r2, [r4]
    16d0:	e59f3030 	ldr	r3, [pc, #48]	; 1708 <index_leader_awaits_reports+0x11c>
    16d4:	e312000f 	tst	r2, #15
    16d8:	e3a02001 	mov	r2, #1
    16dc:	e5832000 	str	r2, [r3]
    16e0:	18bd8070 	popne	{r4, r5, r6, pc}
    16e4:	eaffffd4 	b	163c <index_leader_awaits_reports+0x50>
    16e8:	e3e00000 	mvn	r0, #0
    16ec:	eaffffe7 	b	1690 <index_leader_awaits_reports+0xa4>
    16f0:	00400594 	.word	0x00400594
    16f4:	004005b8 	.word	0x004005b8
    16f8:	00400578 	.word	0x00400578
    16fc:	00400574 	.word	0x00400574
    1700:	0040057c 	.word	0x0040057c
    1704:	00400554 	.word	0x00400554
    1708:	00400560 	.word	0x00400560

0000170c <index_manage_proxy_leader>:
    170c:	e92d4070 	push	{r4, r5, r6, lr}
    1710:	e59f416c 	ldr	r4, [pc, #364]	; 1884 <index_manage_proxy_leader+0x178>
    1714:	e59f316c 	ldr	r3, [pc, #364]	; 1888 <index_manage_proxy_leader+0x17c>
    1718:	e594200c 	ldr	r2, [r4, #12]
    171c:	e2822001 	add	r2, r2, #1
    1720:	e0831392 	umull	r1, r3, r2, r3
    1724:	e584200c 	str	r2, [r4, #12]
    1728:	e1a03123 	lsr	r3, r3, #2
    172c:	e0833103 	add	r3, r3, r3, lsl #2
    1730:	e0523003 	subs	r3, r2, r3
    1734:	1a000044 	bne	184c <index_manage_proxy_leader+0x140>
    1738:	e5943004 	ldr	r3, [r4, #4]
    173c:	e5840008 	str	r0, [r4, #8]
    1740:	e5932000 	ldr	r2, [r3]
    1744:	e3520000 	cmp	r2, #0
    1748:	1a000036 	bne	1828 <index_manage_proxy_leader+0x11c>
    174c:	e5932004 	ldr	r2, [r3, #4]
    1750:	e3520000 	cmp	r2, #0
    1754:	1a000033 	bne	1828 <index_manage_proxy_leader+0x11c>
    1758:	e5932008 	ldr	r2, [r3, #8]
    175c:	e3520000 	cmp	r2, #0
    1760:	1a000030 	bne	1828 <index_manage_proxy_leader+0x11c>
    1764:	e5932004 	ldr	r2, [r3, #4]
    1768:	e3520000 	cmp	r2, #0
    176c:	18bd8070 	popne	{r4, r5, r6, pc}
    1770:	e5933008 	ldr	r3, [r3, #8]
    1774:	e3530000 	cmp	r3, #0
    1778:	18bd8070 	popne	{r4, r5, r6, pc}
    177c:	e59f5108 	ldr	r5, [pc, #264]	; 188c <index_manage_proxy_leader+0x180>
    1780:	e5953000 	ldr	r3, [r5]
    1784:	e2833001 	add	r3, r3, #1
    1788:	e353000f 	cmp	r3, #15
    178c:	e5853000 	str	r3, [r5]
    1790:	9a000035 	bls	186c <index_manage_proxy_leader+0x160>
    1794:	e59f60f4 	ldr	r6, [pc, #244]	; 1890 <index_manage_proxy_leader+0x184>
    1798:	e5962000 	ldr	r2, [r6]
    179c:	e2822010 	add	r2, r2, #16
    17a0:	e1520003 	cmp	r2, r3
    17a4:	18bd8070 	popne	{r4, r5, r6, pc}
    17a8:	e59f30e4 	ldr	r3, [pc, #228]	; 1894 <index_manage_proxy_leader+0x188>
    17ac:	e59f20e4 	ldr	r2, [pc, #228]	; 1898 <index_manage_proxy_leader+0x18c>
    17b0:	e59f10e4 	ldr	r1, [pc, #228]	; 189c <index_manage_proxy_leader+0x190>
    17b4:	e3a00002 	mov	r0, #2
    17b8:	fa000e34 	blx	5090 <io_printf>
    17bc:	e59f00dc 	ldr	r0, [pc, #220]	; 18a0 <index_manage_proxy_leader+0x194>
    17c0:	e59f10dc 	ldr	r1, [pc, #220]	; 18a4 <index_manage_proxy_leader+0x198>
    17c4:	e59fe0dc 	ldr	lr, [pc, #220]	; 18a8 <index_manage_proxy_leader+0x19c>
    17c8:	e5900000 	ldr	r0, [r0]
    17cc:	e3a03000 	mov	r3, #0
    17d0:	e5810000 	str	r0, [r1]
    17d4:	e3a02003 	mov	r2, #3
    17d8:	e5960000 	ldr	r0, [r6]
    17dc:	e59fc0c8 	ldr	ip, [pc, #200]	; 18ac <index_manage_proxy_leader+0x1a0>
    17e0:	e5850000 	str	r0, [r5]
    17e4:	e59f10c4 	ldr	r1, [pc, #196]	; 18b0 <index_manage_proxy_leader+0x1a4>
    17e8:	e58e3000 	str	r3, [lr]
    17ec:	e59f50c0 	ldr	r5, [pc, #192]	; 18b4 <index_manage_proxy_leader+0x1a8>
    17f0:	e59fe0c0 	ldr	lr, [pc, #192]	; 18b8 <index_manage_proxy_leader+0x1ac>
    17f4:	e5862018 	str	r2, [r6, #24]
    17f8:	e59f60bc 	ldr	r6, [pc, #188]	; 18bc <index_manage_proxy_leader+0x1b0>
    17fc:	e58c3000 	str	r3, [ip]
    1800:	e3a0c001 	mov	ip, #1
    1804:	e584300c 	str	r3, [r4, #12]
    1808:	e5813000 	str	r3, [r1]
    180c:	e5863000 	str	r3, [r6]
    1810:	e585c000 	str	ip, [r5]
    1814:	e58ec000 	str	ip, [lr]
    1818:	e1a00002 	mov	r0, r2
    181c:	e1a01003 	mov	r1, r3
    1820:	e8bd4070 	pop	{r4, r5, r6, lr}
    1824:	eafffde0 	b	fac <send_function_signal>
    1828:	ebfffcbe 	bl	b28 <forward_string>
    182c:	e59f2078 	ldr	r2, [pc, #120]	; 18ac <index_manage_proxy_leader+0x1a0>
    1830:	e5943004 	ldr	r3, [r4, #4]
    1834:	e3a01000 	mov	r1, #0
    1838:	e5821000 	str	r1, [r2]
    183c:	e5932000 	ldr	r2, [r3]
    1840:	e1520001 	cmp	r2, r1
    1844:	0affffc6 	beq	1764 <index_manage_proxy_leader+0x58>
    1848:	e8bd8070 	pop	{r4, r5, r6, pc}
    184c:	e5942004 	ldr	r2, [r4, #4]
    1850:	e2433107 	sub	r3, r3, #-1073741823	; 0xc0000001
    1854:	e3700001 	cmn	r0, #1
    1858:	e7820103 	str	r0, [r2, r3, lsl #2]
    185c:	0594300c 	ldreq	r3, [r4, #12]
    1860:	02433001 	subeq	r3, r3, #1
    1864:	0584300c 	streq	r3, [r4, #12]
    1868:	e8bd8070 	pop	{r4, r5, r6, pc}
    186c:	ebfffcad 	bl	b28 <forward_string>
    1870:	e59f2034 	ldr	r2, [pc, #52]	; 18ac <index_manage_proxy_leader+0x1a0>
    1874:	e3a01001 	mov	r1, #1
    1878:	e5953000 	ldr	r3, [r5]
    187c:	e5821000 	str	r1, [r2]
    1880:	eaffffc3 	b	1794 <index_manage_proxy_leader+0x88>
    1884:	0040057c 	.word	0x0040057c
    1888:	cccccccd 	.word	0xcccccccd
    188c:	004005b8 	.word	0x004005b8
    1890:	00400594 	.word	0x00400594
    1894:	0000037f 	.word	0x0000037f
    1898:	00006450 	.word	0x00006450
    189c:	00006574 	.word	0x00006574
    18a0:	00400554 	.word	0x00400554
    18a4:	00400570 	.word	0x00400570
    18a8:	00400564 	.word	0x00400564
    18ac:	00400560 	.word	0x00400560
    18b0:	0040056c 	.word	0x0040056c
    18b4:	00400568 	.word	0x00400568
    18b8:	004005b0 	.word	0x004005b0
    18bc:	00400558 	.word	0x00400558

000018c0 <index_receive>:
    18c0:	e92d41f0 	push	{r4, r5, r6, r7, r8, lr}
    18c4:	e59f4118 	ldr	r4, [pc, #280]	; 19e4 <index_receive+0x124>
    18c8:	e1a05000 	mov	r5, r0
    18cc:	e5943000 	ldr	r3, [r4]
    18d0:	e3530000 	cmp	r3, #0
    18d4:	0a000004 	beq	18ec <index_receive+0x2c>
    18d8:	e3530001 	cmp	r3, #1
    18dc:	18bd81f0 	popne	{r4, r5, r6, r7, r8, pc}
    18e0:	e1a00005 	mov	r0, r5
    18e4:	e8bd41f0 	pop	{r4, r5, r6, r7, r8, lr}
    18e8:	eaffff87 	b	170c <index_manage_proxy_leader>
    18ec:	e59f60f4 	ldr	r6, [pc, #244]	; 19e8 <index_receive+0x128>
    18f0:	e59f30f4 	ldr	r3, [pc, #244]	; 19ec <index_receive+0x12c>
    18f4:	e59f10f4 	ldr	r1, [pc, #244]	; 19f0 <index_receive+0x130>
    18f8:	e5933000 	ldr	r3, [r3]
    18fc:	e5960000 	ldr	r0, [r6]
    1900:	e5912000 	ldr	r2, [r1]
    1904:	e1530000 	cmp	r3, r0
    1908:	13a0300e 	movne	r3, #14
    190c:	03a0300f 	moveq	r3, #15
    1910:	e3750001 	cmn	r5, #1
    1914:	02822001 	addeq	r2, r2, #1
    1918:	05812000 	streq	r2, [r1]
    191c:	e1530002 	cmp	r3, r2
    1920:	18bd81f0 	popne	{r4, r5, r6, r7, r8, pc}
    1924:	e3a03000 	mov	r3, #0
    1928:	e310000f 	tst	r0, #15
    192c:	e59f70c0 	ldr	r7, [pc, #192]	; 19f4 <index_receive+0x134>
    1930:	e5813000 	str	r3, [r1]
    1934:	1a000018 	bne	199c <index_receive+0xdc>
    1938:	e59f30b8 	ldr	r3, [pc, #184]	; 19f8 <index_receive+0x138>
    193c:	e5970000 	ldr	r0, [r7]
    1940:	e5933014 	ldr	r3, [r3, #20]
    1944:	e2800001 	add	r0, r0, #1
    1948:	e1500003 	cmp	r0, r3
    194c:	e5870000 	str	r0, [r7]
    1950:	8a00001d 	bhi	19cc <index_receive+0x10c>
    1954:	e59f30a0 	ldr	r3, [pc, #160]	; 19fc <index_receive+0x13c>
    1958:	e5933000 	ldr	r3, [r3]
    195c:	e1d320b8 	ldrh	r2, [r3, #8]
    1960:	e3520000 	cmp	r2, #0
    1964:	1a000005 	bne	1980 <index_receive+0xc0>
    1968:	e3e00000 	mvn	r0, #0
    196c:	ea000007 	b	1990 <index_receive+0xd0>
    1970:	e5933010 	ldr	r3, [r3, #16]
    1974:	e1d320b8 	ldrh	r2, [r3, #8]
    1978:	e3520000 	cmp	r2, #0
    197c:	0afffff9 	beq	1968 <index_receive+0xa8>
    1980:	e1d320b6 	ldrh	r2, [r3, #6]
    1984:	e1500002 	cmp	r0, r2
    1988:	1afffff8 	bne	1970 <index_receive+0xb0>
    198c:	e1d300bc 	ldrh	r0, [r3, #12]
    1990:	ebfffbcb 	bl	8c4 <send_string>
    1994:	e5943000 	ldr	r3, [r4]
    1998:	eaffffce 	b	18d8 <index_receive+0x18>
    199c:	e5973000 	ldr	r3, [r7]
    19a0:	e3a01001 	mov	r1, #1
    19a4:	e0833001 	add	r3, r3, r1
    19a8:	e1a00003 	mov	r0, r3
    19ac:	e5873000 	str	r3, [r7]
    19b0:	ebfffcfb 	bl	da4 <send_signal>
    19b4:	e5962000 	ldr	r2, [r6]
    19b8:	e3a03001 	mov	r3, #1
    19bc:	e312000f 	tst	r2, #15
    19c0:	e5843000 	str	r3, [r4]
    19c4:	1affffc5 	bne	18e0 <index_receive+0x20>
    19c8:	eaffffda 	b	1938 <index_receive+0x78>
    19cc:	e3a01000 	mov	r1, #0
    19d0:	ebfffcf3 	bl	da4 <send_signal>
    19d4:	e3a03001 	mov	r3, #1
    19d8:	e5863000 	str	r3, [r6]
    19dc:	e5843000 	str	r3, [r4]
    19e0:	eaffffbe 	b	18e0 <index_receive+0x20>
    19e4:	00400560 	.word	0x00400560
    19e8:	004005b8 	.word	0x004005b8
    19ec:	00400594 	.word	0x00400594
    19f0:	00400578 	.word	0x00400578
    19f4:	00400574 	.word	0x00400574
    19f8:	0040057c 	.word	0x0040057c
    19fc:	00400554 	.word	0x00400554

00001a00 <index_collect_string_message>:
    1a00:	e59f1034 	ldr	r1, [pc, #52]	; 1a3c <index_collect_string_message+0x3c>
    1a04:	e59f3034 	ldr	r3, [pc, #52]	; 1a40 <index_collect_string_message+0x40>
    1a08:	e591200c 	ldr	r2, [r1, #12]
    1a0c:	e3700001 	cmn	r0, #1
    1a10:	e083c392 	umull	ip, r3, r2, r3
    1a14:	e591c004 	ldr	ip, [r1, #4]
    1a18:	e1a03123 	lsr	r3, r3, #2
    1a1c:	e0833103 	add	r3, r3, r3, lsl #2
    1a20:	e0633002 	rsb	r3, r3, r2
    1a24:	e2433107 	sub	r3, r3, #-1073741823	; 0xc0000001
    1a28:	e78c0103 	str	r0, [ip, r3, lsl #2]
    1a2c:	0591300c 	ldreq	r3, [r1, #12]
    1a30:	02433001 	subeq	r3, r3, #1
    1a34:	0581300c 	streq	r3, [r1, #12]
    1a38:	e12fff1e 	bx	lr
    1a3c:	0040057c 	.word	0x0040057c
    1a40:	cccccccd 	.word	0xcccccccd

00001a44 <histogram_start_function>:
    1a44:	e59f0214 	ldr	r0, [pc, #532]	; 1c60 <histogram_start_function+0x21c>
    1a48:	e92d4030 	push	{r4, r5, lr}
    1a4c:	e59f3210 	ldr	r3, [pc, #528]	; 1c64 <histogram_start_function+0x220>
    1a50:	e59f5210 	ldr	r5, [pc, #528]	; 1c68 <histogram_start_function+0x224>
    1a54:	e5900000 	ldr	r0, [r0]
    1a58:	e59fc20c 	ldr	ip, [pc, #524]	; 1c6c <histogram_start_function+0x228>
    1a5c:	e59f120c 	ldr	r1, [pc, #524]	; 1c70 <histogram_start_function+0x22c>
    1a60:	e59f220c 	ldr	r2, [pc, #524]	; 1c74 <histogram_start_function+0x230>
    1a64:	e5955000 	ldr	r5, [r5]
    1a68:	e5830000 	str	r0, [r3]
    1a6c:	e3a03000 	mov	r3, #0
    1a70:	e58c5000 	str	r5, [ip]
    1a74:	e59f41fc 	ldr	r4, [pc, #508]	; 1c78 <histogram_start_function+0x234>
    1a78:	e59f51fc 	ldr	r5, [pc, #508]	; 1c7c <histogram_start_function+0x238>
    1a7c:	e5813000 	str	r3, [r1]
    1a80:	e59fe1f8 	ldr	lr, [pc, #504]	; 1c80 <histogram_start_function+0x23c>
    1a84:	e59fc1f8 	ldr	ip, [pc, #504]	; 1c84 <histogram_start_function+0x240>
    1a88:	e59f01f8 	ldr	r0, [pc, #504]	; 1c88 <histogram_start_function+0x244>
    1a8c:	e59f11f8 	ldr	r1, [pc, #504]	; 1c8c <histogram_start_function+0x248>
    1a90:	e5823000 	str	r3, [r2]
    1a94:	e3a02001 	mov	r2, #1
    1a98:	e584300c 	str	r3, [r4, #12]
    1a9c:	e24dd00c 	sub	sp, sp, #12
    1aa0:	e58e3000 	str	r3, [lr]
    1aa4:	e58c3000 	str	r3, [ip]
    1aa8:	e585300c 	str	r3, [r5, #12]
    1aac:	e5853010 	str	r3, [r5, #16]
    1ab0:	e5802000 	str	r2, [r0]
    1ab4:	e5812000 	str	r2, [r1]
    1ab8:	e59f41d0 	ldr	r4, [pc, #464]	; 1c90 <histogram_start_function+0x24c>
    1abc:	ea000000 	b	1ac4 <histogram_start_function+0x80>
    1ac0:	fa000fbf 	blx	59c4 <spin1_delay_us>
    1ac4:	e5943000 	ldr	r3, [r4]
    1ac8:	e3a02001 	mov	r2, #1
    1acc:	e5930004 	ldr	r0, [r3, #4]
    1ad0:	e3a01003 	mov	r1, #3
    1ad4:	fa001027 	blx	5b78 <spin1_send_mc_packet>
    1ad8:	e3500000 	cmp	r0, #0
    1adc:	e3a00001 	mov	r0, #1
    1ae0:	0afffff6 	beq	1ac0 <histogram_start_function+0x7c>
    1ae4:	e3a03000 	mov	r3, #0
    1ae8:	e585300c 	str	r3, [r5, #12]
    1aec:	e5853010 	str	r3, [r5, #16]
    1af0:	ea000000 	b	1af8 <histogram_start_function+0xb4>
    1af4:	fa000fb2 	blx	59c4 <spin1_delay_us>
    1af8:	e5943000 	ldr	r3, [r4]
    1afc:	e3a02001 	mov	r2, #1
    1b00:	e5930004 	ldr	r0, [r3, #4]
    1b04:	e3a01003 	mov	r1, #3
    1b08:	fa00101a 	blx	5b78 <spin1_send_mc_packet>
    1b0c:	e3500000 	cmp	r0, #0
    1b10:	e3a00001 	mov	r0, #1
    1b14:	0afffff6 	beq	1af4 <histogram_start_function+0xb0>
    1b18:	e3a03000 	mov	r3, #0
    1b1c:	e585300c 	str	r3, [r5, #12]
    1b20:	e5853010 	str	r3, [r5, #16]
    1b24:	ea000000 	b	1b2c <histogram_start_function+0xe8>
    1b28:	fa000fa5 	blx	59c4 <spin1_delay_us>
    1b2c:	e5943000 	ldr	r3, [r4]
    1b30:	e3a02001 	mov	r2, #1
    1b34:	e5930004 	ldr	r0, [r3, #4]
    1b38:	e3a01003 	mov	r1, #3
    1b3c:	fa00100d 	blx	5b78 <spin1_send_mc_packet>
    1b40:	e3500000 	cmp	r0, #0
    1b44:	e3a00001 	mov	r0, #1
    1b48:	0afffff6 	beq	1b28 <histogram_start_function+0xe4>
    1b4c:	e3a03000 	mov	r3, #0
    1b50:	e585300c 	str	r3, [r5, #12]
    1b54:	e5853010 	str	r3, [r5, #16]
    1b58:	ea000000 	b	1b60 <histogram_start_function+0x11c>
    1b5c:	fa000f98 	blx	59c4 <spin1_delay_us>
    1b60:	e5943000 	ldr	r3, [r4]
    1b64:	e3a02001 	mov	r2, #1
    1b68:	e5930004 	ldr	r0, [r3, #4]
    1b6c:	e3a01000 	mov	r1, #0
    1b70:	fa001000 	blx	5b78 <spin1_send_mc_packet>
    1b74:	e3500000 	cmp	r0, #0
    1b78:	e3a00001 	mov	r0, #1
    1b7c:	0afffff6 	beq	1b5c <histogram_start_function+0x118>
    1b80:	e3a03000 	mov	r3, #0
    1b84:	e585300c 	str	r3, [r5, #12]
    1b88:	e5853010 	str	r3, [r5, #16]
    1b8c:	ea000000 	b	1b94 <histogram_start_function+0x150>
    1b90:	fa000f8b 	blx	59c4 <spin1_delay_us>
    1b94:	e5943000 	ldr	r3, [r4]
    1b98:	e3a02001 	mov	r2, #1
    1b9c:	e5930004 	ldr	r0, [r3, #4]
    1ba0:	e3a01003 	mov	r1, #3
    1ba4:	fa000ff3 	blx	5b78 <spin1_send_mc_packet>
    1ba8:	e3500000 	cmp	r0, #0
    1bac:	e3a00001 	mov	r0, #1
    1bb0:	0afffff6 	beq	1b90 <histogram_start_function+0x14c>
    1bb4:	e5953000 	ldr	r3, [r5]
    1bb8:	e2433065 	sub	r3, r3, #101	; 0x65
    1bbc:	e3530030 	cmp	r3, #48	; 0x30
    1bc0:	8a000024 	bhi	1c58 <histogram_start_function+0x214>
    1bc4:	e3a04003 	mov	r4, #3
    1bc8:	e59f30c4 	ldr	r3, [pc, #196]	; 1c94 <histogram_start_function+0x250>
    1bcc:	e59f20c4 	ldr	r2, [pc, #196]	; 1c98 <histogram_start_function+0x254>
    1bd0:	e59f10c4 	ldr	r1, [pc, #196]	; 1c9c <histogram_start_function+0x258>
    1bd4:	e3a00002 	mov	r0, #2
    1bd8:	fa000d2c 	blx	5090 <io_printf>
    1bdc:	e59f30bc 	ldr	r3, [pc, #188]	; 1ca0 <histogram_start_function+0x25c>
    1be0:	e59f20b0 	ldr	r2, [pc, #176]	; 1c98 <histogram_start_function+0x254>
    1be4:	e59f10b8 	ldr	r1, [pc, #184]	; 1ca4 <histogram_start_function+0x260>
    1be8:	e3a00002 	mov	r0, #2
    1bec:	e58d4000 	str	r4, [sp]
    1bf0:	fa000d26 	blx	5090 <io_printf>
    1bf4:	e59f30ac 	ldr	r3, [pc, #172]	; 1ca8 <histogram_start_function+0x264>
    1bf8:	e59f2098 	ldr	r2, [pc, #152]	; 1c98 <histogram_start_function+0x254>
    1bfc:	e59f10a8 	ldr	r1, [pc, #168]	; 1cac <histogram_start_function+0x268>
    1c00:	e3a00002 	mov	r0, #2
    1c04:	e58d4000 	str	r4, [sp]
    1c08:	fa000d20 	blx	5090 <io_printf>
    1c0c:	e3a03fa1 	mov	r3, #644	; 0x284
    1c10:	e59f2080 	ldr	r2, [pc, #128]	; 1c98 <histogram_start_function+0x254>
    1c14:	e59f1094 	ldr	r1, [pc, #148]	; 1cb0 <histogram_start_function+0x26c>
    1c18:	e3a00002 	mov	r0, #2
    1c1c:	e58d4000 	str	r4, [sp]
    1c20:	fa000d1a 	blx	5090 <io_printf>
    1c24:	e3a03000 	mov	r3, #0
    1c28:	e58d3000 	str	r3, [sp]
    1c2c:	e59f2064 	ldr	r2, [pc, #100]	; 1c98 <histogram_start_function+0x254>
    1c30:	e59f307c 	ldr	r3, [pc, #124]	; 1cb4 <histogram_start_function+0x270>
    1c34:	e59f107c 	ldr	r1, [pc, #124]	; 1cb8 <histogram_start_function+0x274>
    1c38:	e3a00002 	mov	r0, #2
    1c3c:	fa000d13 	blx	5090 <io_printf>
    1c40:	e58d4000 	str	r4, [sp]
    1c44:	e59f3070 	ldr	r3, [pc, #112]	; 1cbc <histogram_start_function+0x278>
    1c48:	e59f2048 	ldr	r2, [pc, #72]	; 1c98 <histogram_start_function+0x254>
    1c4c:	e59f106c 	ldr	r1, [pc, #108]	; 1cc0 <histogram_start_function+0x27c>
    1c50:	e3a00002 	mov	r0, #2
    1c54:	fa000d0d 	blx	5090 <io_printf>
    1c58:	e28dd00c 	add	sp, sp, #12
    1c5c:	e8bd8030 	pop	{r4, r5, pc}
    1c60:	00400554 	.word	0x00400554
    1c64:	00400570 	.word	0x00400570
    1c68:	00400594 	.word	0x00400594
    1c6c:	004005b8 	.word	0x004005b8
    1c70:	00400564 	.word	0x00400564
    1c74:	0040056c 	.word	0x0040056c
    1c78:	0040057c 	.word	0x0040057c
    1c7c:	00400014 	.word	0x00400014
    1c80:	00400560 	.word	0x00400560
    1c84:	00400558 	.word	0x00400558
    1c88:	00400568 	.word	0x00400568
    1c8c:	004005b0 	.word	0x004005b0
    1c90:	00400550 	.word	0x00400550
    1c94:	00000281 	.word	0x00000281
    1c98:	00006450 	.word	0x00006450
    1c9c:	0000654c 	.word	0x0000654c
    1ca0:	00000282 	.word	0x00000282
    1ca4:	00006484 	.word	0x00006484
    1ca8:	00000283 	.word	0x00000283
    1cac:	000064a0 	.word	0x000064a0
    1cb0:	000064bc 	.word	0x000064bc
    1cb4:	00000285 	.word	0x00000285
    1cb8:	000064d8 	.word	0x000064d8
    1cbc:	00000286 	.word	0x00000286
    1cc0:	000064f4 	.word	0x000064f4

00001cc4 <histogram_leader_next_step>:
    1cc4:	e59f2364 	ldr	r2, [pc, #868]	; 2030 <P2P_TABLE_SIZE+0x30>
    1cc8:	e59f3364 	ldr	r3, [pc, #868]	; 2034 <P2P_TABLE_SIZE+0x34>
    1ccc:	e92d4ff0 	push	{r4, r5, r6, r7, r8, r9, sl, fp, lr}
    1cd0:	e28db020 	add	fp, sp, #32
    1cd4:	e24dd024 	sub	sp, sp, #36	; 0x24
    1cd8:	e5925000 	ldr	r5, [r2]
    1cdc:	e5933000 	ldr	r3, [r3]
    1ce0:	e59f0350 	ldr	r0, [pc, #848]	; 2038 <P2P_TABLE_SIZE+0x38>
    1ce4:	e59f1350 	ldr	r1, [pc, #848]	; 203c <P2P_TABLE_SIZE+0x3c>
    1ce8:	e59f2350 	ldr	r2, [pc, #848]	; 2040 <P2P_TABLE_SIZE+0x40>
    1cec:	e1550003 	cmp	r5, r3
    1cf0:	e3a03000 	mov	r3, #0
    1cf4:	e5803000 	str	r3, [r0]
    1cf8:	e5813000 	str	r3, [r1]
    1cfc:	e5823000 	str	r3, [r2]
    1d00:	8a000071 	bhi	1ecc <histogram_leader_next_step+0x208>
    1d04:	e59f6338 	ldr	r6, [pc, #824]	; 2044 <P2P_TABLE_SIZE+0x44>
    1d08:	e59f2338 	ldr	r2, [pc, #824]	; 2048 <P2P_TABLE_SIZE+0x48>
    1d0c:	e3a01001 	mov	r1, #1
    1d10:	e5821000 	str	r1, [r2]
    1d14:	e586300c 	str	r3, [r6, #12]
    1d18:	e5863010 	str	r3, [r6, #16]
    1d1c:	e59f4328 	ldr	r4, [pc, #808]	; 204c <P2P_TABLE_SIZE+0x4c>
    1d20:	ea000000 	b	1d28 <histogram_leader_next_step+0x64>
    1d24:	fa000f26 	blx	59c4 <spin1_delay_us>
    1d28:	e5943000 	ldr	r3, [r4]
    1d2c:	e3a02001 	mov	r2, #1
    1d30:	e5930004 	ldr	r0, [r3, #4]
    1d34:	e1a01002 	mov	r1, r2
    1d38:	fa000f8e 	blx	5b78 <spin1_send_mc_packet>
    1d3c:	e3500000 	cmp	r0, #0
    1d40:	e3a00001 	mov	r0, #1
    1d44:	0afffff6 	beq	1d24 <histogram_leader_next_step+0x60>
    1d48:	e3a03000 	mov	r3, #0
    1d4c:	e586300c 	str	r3, [r6, #12]
    1d50:	e5863010 	str	r3, [r6, #16]
    1d54:	ea000000 	b	1d5c <histogram_leader_next_step+0x98>
    1d58:	fa000f19 	blx	59c4 <spin1_delay_us>
    1d5c:	e5943000 	ldr	r3, [r4]
    1d60:	e3a02001 	mov	r2, #1
    1d64:	e5930004 	ldr	r0, [r3, #4]
    1d68:	e1a01002 	mov	r1, r2
    1d6c:	fa000f81 	blx	5b78 <spin1_send_mc_packet>
    1d70:	e3500000 	cmp	r0, #0
    1d74:	e3a00001 	mov	r0, #1
    1d78:	0afffff6 	beq	1d58 <histogram_leader_next_step+0x94>
    1d7c:	e3a03000 	mov	r3, #0
    1d80:	e586300c 	str	r3, [r6, #12]
    1d84:	e5863010 	str	r3, [r6, #16]
    1d88:	ea000000 	b	1d90 <histogram_leader_next_step+0xcc>
    1d8c:	fa000f0c 	blx	59c4 <spin1_delay_us>
    1d90:	e5943000 	ldr	r3, [r4]
    1d94:	e3a02001 	mov	r2, #1
    1d98:	e5930004 	ldr	r0, [r3, #4]
    1d9c:	e1a01002 	mov	r1, r2
    1da0:	fa000f74 	blx	5b78 <spin1_send_mc_packet>
    1da4:	e3500000 	cmp	r0, #0
    1da8:	e3a00001 	mov	r0, #1
    1dac:	0afffff6 	beq	1d8c <histogram_leader_next_step+0xc8>
    1db0:	e3a03000 	mov	r3, #0
    1db4:	e586300c 	str	r3, [r6, #12]
    1db8:	e5863010 	str	r3, [r6, #16]
    1dbc:	ea000000 	b	1dc4 <histogram_leader_next_step+0x100>
    1dc0:	fa000eff 	blx	59c4 <spin1_delay_us>
    1dc4:	e5943000 	ldr	r3, [r4]
    1dc8:	e3a02001 	mov	r2, #1
    1dcc:	e5930004 	ldr	r0, [r3, #4]
    1dd0:	e3a01000 	mov	r1, #0
    1dd4:	fa000f67 	blx	5b78 <spin1_send_mc_packet>
    1dd8:	e3500000 	cmp	r0, #0
    1ddc:	e3a00001 	mov	r0, #1
    1de0:	0afffff6 	beq	1dc0 <histogram_leader_next_step+0xfc>
    1de4:	e3a03000 	mov	r3, #0
    1de8:	e586300c 	str	r3, [r6, #12]
    1dec:	e5863010 	str	r3, [r6, #16]
    1df0:	ea000000 	b	1df8 <histogram_leader_next_step+0x134>
    1df4:	fa000ef2 	blx	59c4 <spin1_delay_us>
    1df8:	e5943000 	ldr	r3, [r4]
    1dfc:	e3a02001 	mov	r2, #1
    1e00:	e5930004 	ldr	r0, [r3, #4]
    1e04:	e1a01005 	mov	r1, r5
    1e08:	fa000f5a 	blx	5b78 <spin1_send_mc_packet>
    1e0c:	e3500000 	cmp	r0, #0
    1e10:	e3a00001 	mov	r0, #1
    1e14:	0afffff6 	beq	1df4 <histogram_leader_next_step+0x130>
    1e18:	e5963000 	ldr	r3, [r6]
    1e1c:	e2433065 	sub	r3, r3, #101	; 0x65
    1e20:	e3530030 	cmp	r3, #48	; 0x30
    1e24:	9a000001 	bls	1e30 <histogram_leader_next_step+0x16c>
    1e28:	e24bd020 	sub	sp, fp, #32
    1e2c:	e8bd8ff0 	pop	{r4, r5, r6, r7, r8, r9, sl, fp, pc}
    1e30:	e3a04001 	mov	r4, #1
    1e34:	e59f3214 	ldr	r3, [pc, #532]	; 2050 <P2P_TABLE_SIZE+0x50>
    1e38:	e59f2214 	ldr	r2, [pc, #532]	; 2054 <P2P_TABLE_SIZE+0x54>
    1e3c:	e59f1214 	ldr	r1, [pc, #532]	; 2058 <P2P_TABLE_SIZE+0x58>
    1e40:	e3a00002 	mov	r0, #2
    1e44:	fa000c91 	blx	5090 <io_printf>
    1e48:	e58d4000 	str	r4, [sp]
    1e4c:	e59f3208 	ldr	r3, [pc, #520]	; 205c <P2P_TABLE_SIZE+0x5c>
    1e50:	e59f21fc 	ldr	r2, [pc, #508]	; 2054 <P2P_TABLE_SIZE+0x54>
    1e54:	e59f1204 	ldr	r1, [pc, #516]	; 2060 <P2P_TABLE_SIZE+0x60>
    1e58:	e3a00002 	mov	r0, #2
    1e5c:	fa000c8b 	blx	5090 <io_printf>
    1e60:	e58d4000 	str	r4, [sp]
    1e64:	e59f31f8 	ldr	r3, [pc, #504]	; 2064 <P2P_TABLE_SIZE+0x64>
    1e68:	e59f21e4 	ldr	r2, [pc, #484]	; 2054 <P2P_TABLE_SIZE+0x54>
    1e6c:	e59f11f4 	ldr	r1, [pc, #500]	; 2068 <P2P_TABLE_SIZE+0x68>
    1e70:	e3a00002 	mov	r0, #2
    1e74:	fa000c85 	blx	5090 <io_printf>
    1e78:	e58d4000 	str	r4, [sp]
    1e7c:	e3a03fa1 	mov	r3, #644	; 0x284
    1e80:	e59f21cc 	ldr	r2, [pc, #460]	; 2054 <P2P_TABLE_SIZE+0x54>
    1e84:	e59f11e0 	ldr	r1, [pc, #480]	; 206c <P2P_TABLE_SIZE+0x6c>
    1e88:	e3a00002 	mov	r0, #2
    1e8c:	fa000c7f 	blx	5090 <io_printf>
    1e90:	e3a03000 	mov	r3, #0
    1e94:	e58d3000 	str	r3, [sp]
    1e98:	e59f21b4 	ldr	r2, [pc, #436]	; 2054 <P2P_TABLE_SIZE+0x54>
    1e9c:	e59f31cc 	ldr	r3, [pc, #460]	; 2070 <P2P_TABLE_SIZE+0x70>
    1ea0:	e59f11cc 	ldr	r1, [pc, #460]	; 2074 <P2P_TABLE_SIZE+0x74>
    1ea4:	e3a00002 	mov	r0, #2
    1ea8:	fa000c78 	blx	5090 <io_printf>
    1eac:	e58d5000 	str	r5, [sp]
    1eb0:	e59f31c0 	ldr	r3, [pc, #448]	; 2078 <P2P_TABLE_SIZE+0x78>
    1eb4:	e59f2198 	ldr	r2, [pc, #408]	; 2054 <P2P_TABLE_SIZE+0x54>
    1eb8:	e59f11bc 	ldr	r1, [pc, #444]	; 207c <P2P_TABLE_SIZE+0x7c>
    1ebc:	e3a00002 	mov	r0, #2
    1ec0:	fa000c72 	blx	5090 <io_printf>
    1ec4:	e24bd020 	sub	sp, fp, #32
    1ec8:	e8bd8ff0 	pop	{r4, r5, r6, r7, r8, r9, sl, fp, pc}
    1ecc:	e59f71ac 	ldr	r7, [pc, #428]	; 2080 <P2P_TABLE_SIZE+0x80>
    1ed0:	e59f31ac 	ldr	r3, [pc, #428]	; 2084 <P2P_TABLE_SIZE+0x84>
    1ed4:	e5972014 	ldr	r2, [r7, #20]
    1ed8:	e50b2038 	str	r2, [fp, #-56]	; 0xffffffc8
    1edc:	e5934000 	ldr	r4, [r3]
    1ee0:	e3a05020 	mov	r5, #32
    1ee4:	ea000005 	b	1f00 <histogram_leader_next_step+0x23c>
    1ee8:	e1d430b6 	ldrh	r3, [r4, #6]
    1eec:	e3530000 	cmp	r3, #0
    1ef0:	05944010 	ldreq	r4, [r4, #16]
    1ef4:	01d430b6 	ldrheq	r3, [r4, #6]
    1ef8:	e3530000 	cmp	r3, #0
    1efc:	1a000010 	bne	1f44 <histogram_leader_next_step+0x280>
    1f00:	e1d430b8 	ldrh	r3, [r4, #8]
    1f04:	e3530000 	cmp	r3, #0
    1f08:	1afffff6 	bne	1ee8 <histogram_leader_next_step+0x224>
    1f0c:	e59fc174 	ldr	ip, [pc, #372]	; 2088 <P2P_TABLE_SIZE+0x88>
    1f10:	e5972014 	ldr	r2, [r7, #20]
    1f14:	e59c3000 	ldr	r3, [ip]
    1f18:	e2822001 	add	r2, r2, #1
    1f1c:	e2833001 	add	r3, r3, #1
    1f20:	e1a01003 	mov	r1, r3
    1f24:	e3a00002 	mov	r0, #2
    1f28:	e58c3000 	str	r3, [ip]
    1f2c:	ebfffc1e 	bl	fac <send_function_signal>
    1f30:	e59f3110 	ldr	r3, [pc, #272]	; 2048 <P2P_TABLE_SIZE+0x48>
    1f34:	e3a02001 	mov	r2, #1
    1f38:	e5832000 	str	r2, [r3]
    1f3c:	e24bd020 	sub	sp, fp, #32
    1f40:	e8bd8ff0 	pop	{r4, r5, r6, r7, r8, r9, sl, fp, pc}
    1f44:	e51b2038 	ldr	r2, [fp, #-56]	; 0xffffffc8
    1f48:	e1520003 	cmp	r2, r3
    1f4c:	3affffee 	bcc	1f0c <histogram_leader_next_step+0x248>
    1f50:	e59f3134 	ldr	r3, [pc, #308]	; 208c <P2P_TABLE_SIZE+0x8c>
    1f54:	e5d4c004 	ldrb	ip, [r4, #4]
    1f58:	e593200c 	ldr	r2, [r3, #12]
    1f5c:	e50bd03c 	str	sp, [fp, #-60]	; 0xffffffc4
    1f60:	e2823007 	add	r3, r2, #7
    1f64:	e3c33007 	bic	r3, r3, #7
    1f68:	e04dd003 	sub	sp, sp, r3
    1f6c:	e35c0000 	cmp	ip, #0
    1f70:	e28d1008 	add	r1, sp, #8
    1f74:	e1a06122 	lsr	r6, r2, #2
    1f78:	e594e000 	ldr	lr, [r4]
    1f7c:	0a00000c 	beq	1fb4 <histogram_leader_next_step+0x2f0>
    1f80:	e08ea10c 	add	sl, lr, ip, lsl #2
    1f84:	e1a00001 	mov	r0, r1
    1f88:	e49e3004 	ldr	r3, [lr], #4
    1f8c:	e5c03003 	strb	r3, [r0, #3]
    1f90:	e1a09c23 	lsr	r9, r3, #24
    1f94:	e1a08823 	lsr	r8, r3, #16
    1f98:	e15e000a 	cmp	lr, sl
    1f9c:	e1a03423 	lsr	r3, r3, #8
    1fa0:	e5c09000 	strb	r9, [r0]
    1fa4:	e5c08001 	strb	r8, [r0, #1]
    1fa8:	e5c03002 	strb	r3, [r0, #2]
    1fac:	e0800006 	add	r0, r0, r6
    1fb0:	1afffff4 	bne	1f88 <histogram_leader_next_step+0x2c4>
    1fb4:	e15c0006 	cmp	ip, r6
    1fb8:	e1a0300c 	mov	r3, ip
    1fbc:	2a00000a 	bcs	1fec <histogram_leader_next_step+0x328>
    1fc0:	e156000c 	cmp	r6, ip
    1fc4:	9a000008 	bls	1fec <histogram_leader_next_step+0x328>
    1fc8:	e02c1c96 	mla	ip, r6, ip, r1
    1fcc:	e2833001 	add	r3, r3, #1
    1fd0:	e1560003 	cmp	r6, r3
    1fd4:	e5cc5000 	strb	r5, [ip]
    1fd8:	e5cc5001 	strb	r5, [ip, #1]
    1fdc:	e5cc5002 	strb	r5, [ip, #2]
    1fe0:	e5cc5003 	strb	r5, [ip, #3]
    1fe4:	e08cc006 	add	ip, ip, r6
    1fe8:	1afffff7 	bne	1fcc <histogram_leader_next_step+0x308>
    1fec:	e3a00000 	mov	r0, #0
    1ff0:	eb00071b 	bl	3c64 <recording_record>
    1ff4:	e3a0200a 	mov	r2, #10
    1ff8:	e24b1030 	sub	r1, fp, #48	; 0x30
    1ffc:	e51bd03c 	ldr	sp, [fp, #-60]	; 0xffffffc4
    2000:	e1d400ba 	ldrh	r0, [r4, #10]
    2004:	eb00104b 	bl	6138 <itoa>
    2008:	e3a0200a 	mov	r2, #10
    200c:	e24b1030 	sub	r1, fp, #48	; 0x30
    2010:	e3a00000 	mov	r0, #0
    2014:	eb000712 	bl	3c64 <recording_record>
    2018:	e5944010 	ldr	r4, [r4, #16]
    201c:	e51b2038 	ldr	r2, [fp, #-56]	; 0xffffffc8
    2020:	e1d430b6 	ldrh	r3, [r4, #6]
    2024:	e1520003 	cmp	r2, r3
    2028:	2affffb4 	bcs	1f00 <histogram_leader_next_step+0x23c>
    202c:	eaffffb6 	b	1f0c <histogram_leader_next_step+0x248>
    2030:	004005b0 	.word	0x004005b0
    2034:	00400574 	.word	0x00400574
    2038:	00400578 	.word	0x00400578
    203c:	00400564 	.word	0x00400564
    2040:	0040056c 	.word	0x0040056c
    2044:	00400014 	.word	0x00400014
    2048:	00400560 	.word	0x00400560
    204c:	00400550 	.word	0x00400550
    2050:	00000281 	.word	0x00000281
    2054:	00006450 	.word	0x00006450
    2058:	0000654c 	.word	0x0000654c
    205c:	00000282 	.word	0x00000282
    2060:	00006484 	.word	0x00006484
    2064:	00000283 	.word	0x00000283
    2068:	000064a0 	.word	0x000064a0
    206c:	000064bc 	.word	0x000064bc
    2070:	00000285 	.word	0x00000285
    2074:	000064d8 	.word	0x000064d8
    2078:	00000286 	.word	0x00000286
    207c:	000064f4 	.word	0x000064f4
    2080:	0040057c 	.word	0x0040057c
    2084:	00400554 	.word	0x00400554
    2088:	004005b8 	.word	0x004005b8
    208c:	00400594 	.word	0x00400594

00002090 <histogram_receive>:
    2090:	e92d4030 	push	{r4, r5, lr}
    2094:	e59f4198 	ldr	r4, [pc, #408]	; 2234 <histogram_receive+0x1a4>
    2098:	e24dd00c 	sub	sp, sp, #12
    209c:	e5943000 	ldr	r3, [r4]
    20a0:	e3530000 	cmp	r3, #0
    20a4:	1a00001a 	bne	2114 <histogram_receive+0x84>
    20a8:	e59f1188 	ldr	r1, [pc, #392]	; 2238 <histogram_receive+0x1a8>
    20ac:	e5913000 	ldr	r3, [r1]
    20b0:	e3530000 	cmp	r3, #0
    20b4:	1a000007 	bne	20d8 <histogram_receive+0x48>
    20b8:	e59fc17c 	ldr	ip, [pc, #380]	; 223c <histogram_receive+0x1ac>
    20bc:	e59f217c 	ldr	r2, [pc, #380]	; 2240 <histogram_receive+0x1b0>
    20c0:	e59cc000 	ldr	ip, [ip]
    20c4:	e3700001 	cmn	r0, #1
    20c8:	e582c000 	str	ip, [r2]
    20cc:	0a000008 	beq	20f4 <histogram_receive+0x64>
    20d0:	e28dd00c 	add	sp, sp, #12
    20d4:	e8bd8030 	pop	{r4, r5, pc}
    20d8:	e353000c 	cmp	r3, #12
    20dc:	859fc158 	ldrhi	ip, [pc, #344]	; 223c <histogram_receive+0x1ac>
    20e0:	859f215c 	ldrhi	r2, [pc, #348]	; 2244 <histogram_receive+0x1b4>
    20e4:	859cc000 	ldrhi	ip, [ip]
    20e8:	8582c000 	strhi	ip, [r2]
    20ec:	e3700001 	cmn	r0, #1
    20f0:	1a000001 	bne	20fc <histogram_receive+0x6c>
    20f4:	e2833001 	add	r3, r3, #1
    20f8:	e5813000 	str	r3, [r1]
    20fc:	e353000f 	cmp	r3, #15
    2100:	1afffff2 	bne	20d0 <histogram_receive+0x40>
    2104:	e58d0004 	str	r0, [sp, #4]
    2108:	ebfffeed 	bl	1cc4 <histogram_leader_next_step>
    210c:	e5943000 	ldr	r3, [r4]
    2110:	e59d0004 	ldr	r0, [sp, #4]
    2114:	e3530001 	cmp	r3, #1
    2118:	1affffec 	bne	20d0 <histogram_receive+0x40>
    211c:	e59f5124 	ldr	r5, [pc, #292]	; 2248 <histogram_receive+0x1b8>
    2120:	e59f3124 	ldr	r3, [pc, #292]	; 224c <histogram_receive+0x1bc>
    2124:	e5952000 	ldr	r2, [r5]
    2128:	e5933000 	ldr	r3, [r3]
    212c:	e1520003 	cmp	r2, r3
    2130:	9a00000b 	bls	2164 <histogram_receive+0xd4>
    2134:	e3700001 	cmn	r0, #1
    2138:	0affffe4 	beq	20d0 <histogram_receive+0x40>
    213c:	e59fc10c 	ldr	ip, [pc, #268]	; 2250 <histogram_receive+0x1c0>
    2140:	e1a02000 	mov	r2, r0
    2144:	e59c3000 	ldr	r3, [ip]
    2148:	e3a00002 	mov	r0, #2
    214c:	e2833001 	add	r3, r3, #1
    2150:	e1a01003 	mov	r1, r3
    2154:	e58c3000 	str	r3, [ip]
    2158:	e28dd00c 	add	sp, sp, #12
    215c:	e8bd4030 	pop	{r4, r5, lr}
    2160:	eafffb91 	b	fac <send_function_signal>
    2164:	e3700001 	cmn	r0, #1
    2168:	e59f10c8 	ldr	r1, [pc, #200]	; 2238 <histogram_receive+0x1a8>
    216c:	159fe0e0 	ldrne	lr, [pc, #224]	; 2254 <histogram_receive+0x1c4>
    2170:	15913000 	ldrne	r3, [r1]
    2174:	159ec000 	ldrne	ip, [lr]
    2178:	05913000 	ldreq	r3, [r1]
    217c:	12833001 	addne	r3, r3, #1
    2180:	108c0000 	addne	r0, ip, r0
    2184:	15813000 	strne	r3, [r1]
    2188:	158e0000 	strne	r0, [lr]
    218c:	e353000f 	cmp	r3, #15
    2190:	1affffce 	bne	20d0 <histogram_receive+0x40>
    2194:	e59f00bc 	ldr	r0, [pc, #188]	; 2258 <histogram_receive+0x1c8>
    2198:	e3a03000 	mov	r3, #0
    219c:	e5900014 	ldr	r0, [r0, #20]
    21a0:	e5813000 	str	r3, [r1]
    21a4:	e1520000 	cmp	r2, r0
    21a8:	e5843000 	str	r3, [r4]
    21ac:	9a000009 	bls	21d8 <histogram_receive+0x148>
    21b0:	e59f409c 	ldr	r4, [pc, #156]	; 2254 <histogram_receive+0x1c4>
    21b4:	e5941000 	ldr	r1, [r4]
    21b8:	e3a00000 	mov	r0, #0
    21bc:	ebfffb7a 	bl	fac <send_function_signal>
    21c0:	e5953000 	ldr	r3, [r5]
    21c4:	e3a02000 	mov	r2, #0
    21c8:	e2833001 	add	r3, r3, #1
    21cc:	e5853000 	str	r3, [r5]
    21d0:	e5842000 	str	r2, [r4]
    21d4:	eaffffbd 	b	20d0 <histogram_receive+0x40>
    21d8:	e59f307c 	ldr	r3, [pc, #124]	; 225c <histogram_receive+0x1cc>
    21dc:	e5933000 	ldr	r3, [r3]
    21e0:	e1d300b8 	ldrh	r0, [r3, #8]
    21e4:	e3500000 	cmp	r0, #0
    21e8:	1a000004 	bne	2200 <histogram_receive+0x170>
    21ec:	ea00000b 	b	2220 <histogram_receive+0x190>
    21f0:	e5933010 	ldr	r3, [r3, #16]
    21f4:	e1d300b8 	ldrh	r0, [r3, #8]
    21f8:	e3500000 	cmp	r0, #0
    21fc:	0a000007 	beq	2220 <histogram_receive+0x190>
    2200:	e1d310b6 	ldrh	r1, [r3, #6]
    2204:	e1520001 	cmp	r2, r1
    2208:	1afffff8 	bne	21f0 <histogram_receive+0x160>
    220c:	e59f4040 	ldr	r4, [pc, #64]	; 2254 <histogram_receive+0x1c4>
    2210:	e5941000 	ldr	r1, [r4]
    2214:	e0800001 	add	r0, r0, r1
    2218:	e1c300ba 	strh	r0, [r3, #10]
    221c:	eaffffe5 	b	21b8 <histogram_receive+0x128>
    2220:	e59f402c 	ldr	r4, [pc, #44]	; 2254 <histogram_receive+0x1c4>
    2224:	e59f0034 	ldr	r0, [pc, #52]	; 2260 <histogram_receive+0x1d0>
    2228:	e5941000 	ldr	r1, [r4]
    222c:	e5803000 	str	r3, [r0]
    2230:	eaffffe0 	b	21b8 <histogram_receive+0x128>
    2234:	00400560 	.word	0x00400560
    2238:	00400578 	.word	0x00400578
    223c:	00400014 	.word	0x00400014
    2240:	00400564 	.word	0x00400564
    2244:	0040056c 	.word	0x0040056c
    2248:	004005b0 	.word	0x004005b0
    224c:	00400574 	.word	0x00400574
    2250:	004005b8 	.word	0x004005b8
    2254:	00400558 	.word	0x00400558
    2258:	0040057c 	.word	0x0040057c
    225c:	00400554 	.word	0x00400554
    2260:	0040055c 	.word	0x0040055c

00002264 <histogram_synchronise_entries>:
    2264:	e92d4070 	push	{r4, r5, r6, lr}
    2268:	e59f3114 	ldr	r3, [pc, #276]	; 2384 <histogram_synchronise_entries+0x120>
    226c:	e59f4114 	ldr	r4, [pc, #276]	; 2388 <histogram_synchronise_entries+0x124>
    2270:	e5933000 	ldr	r3, [r3]
    2274:	e594c000 	ldr	ip, [r4]
    2278:	e15c0003 	cmp	ip, r3
    227c:	9a00000a 	bls	22ac <histogram_synchronise_entries+0x48>
    2280:	e3700001 	cmn	r0, #1
    2284:	08bd8070 	popeq	{r4, r5, r6, pc}
    2288:	e59fc0fc 	ldr	ip, [pc, #252]	; 238c <histogram_synchronise_entries+0x128>
    228c:	e1a02000 	mov	r2, r0
    2290:	e59c3000 	ldr	r3, [ip]
    2294:	e3a00002 	mov	r0, #2
    2298:	e2833001 	add	r3, r3, #1
    229c:	e1a01003 	mov	r1, r3
    22a0:	e8bd4070 	pop	{r4, r5, r6, lr}
    22a4:	e58c3000 	str	r3, [ip]
    22a8:	eafffb3f 	b	fac <send_function_signal>
    22ac:	e3700001 	cmn	r0, #1
    22b0:	e59f10d8 	ldr	r1, [pc, #216]	; 2390 <histogram_synchronise_entries+0x12c>
    22b4:	159fe0d8 	ldrne	lr, [pc, #216]	; 2394 <histogram_synchronise_entries+0x130>
    22b8:	15913000 	ldrne	r3, [r1]
    22bc:	159e2000 	ldrne	r2, [lr]
    22c0:	05913000 	ldreq	r3, [r1]
    22c4:	12833001 	addne	r3, r3, #1
    22c8:	10820000 	addne	r0, r2, r0
    22cc:	15813000 	strne	r3, [r1]
    22d0:	158e0000 	strne	r0, [lr]
    22d4:	e353000f 	cmp	r3, #15
    22d8:	18bd8070 	popne	{r4, r5, r6, pc}
    22dc:	e59f30b4 	ldr	r3, [pc, #180]	; 2398 <histogram_synchronise_entries+0x134>
    22e0:	e59f20b4 	ldr	r2, [pc, #180]	; 239c <histogram_synchronise_entries+0x138>
    22e4:	e5930014 	ldr	r0, [r3, #20]
    22e8:	e3a03000 	mov	r3, #0
    22ec:	e15c0000 	cmp	ip, r0
    22f0:	e5823000 	str	r3, [r2]
    22f4:	e5813000 	str	r3, [r1]
    22f8:	9a00000a 	bls	2328 <histogram_synchronise_entries+0xc4>
    22fc:	e59f5090 	ldr	r5, [pc, #144]	; 2394 <histogram_synchronise_entries+0x130>
    2300:	e5951000 	ldr	r1, [r5]
    2304:	e1a0200c 	mov	r2, ip
    2308:	e3a00000 	mov	r0, #0
    230c:	ebfffb26 	bl	fac <send_function_signal>
    2310:	e5943000 	ldr	r3, [r4]
    2314:	e3a02000 	mov	r2, #0
    2318:	e2833001 	add	r3, r3, #1
    231c:	e5843000 	str	r3, [r4]
    2320:	e5852000 	str	r2, [r5]
    2324:	e8bd8070 	pop	{r4, r5, r6, pc}
    2328:	e59f3070 	ldr	r3, [pc, #112]	; 23a0 <histogram_synchronise_entries+0x13c>
    232c:	e5933000 	ldr	r3, [r3]
    2330:	e1d320b8 	ldrh	r2, [r3, #8]
    2334:	e3520000 	cmp	r2, #0
    2338:	1a000004 	bne	2350 <histogram_synchronise_entries+0xec>
    233c:	ea00000b 	b	2370 <histogram_synchronise_entries+0x10c>
    2340:	e5933010 	ldr	r3, [r3, #16]
    2344:	e1d320b8 	ldrh	r2, [r3, #8]
    2348:	e3520000 	cmp	r2, #0
    234c:	0a000007 	beq	2370 <histogram_synchronise_entries+0x10c>
    2350:	e1d310b6 	ldrh	r1, [r3, #6]
    2354:	e15c0001 	cmp	ip, r1
    2358:	1afffff8 	bne	2340 <histogram_synchronise_entries+0xdc>
    235c:	e59f5030 	ldr	r5, [pc, #48]	; 2394 <histogram_synchronise_entries+0x130>
    2360:	e5951000 	ldr	r1, [r5]
    2364:	e0822001 	add	r2, r2, r1
    2368:	e1c320ba 	strh	r2, [r3, #10]
    236c:	eaffffe4 	b	2304 <histogram_synchronise_entries+0xa0>
    2370:	e59f501c 	ldr	r5, [pc, #28]	; 2394 <histogram_synchronise_entries+0x130>
    2374:	e59f2028 	ldr	r2, [pc, #40]	; 23a4 <histogram_synchronise_entries+0x140>
    2378:	e5951000 	ldr	r1, [r5]
    237c:	e5823000 	str	r3, [r2]
    2380:	eaffffdf 	b	2304 <histogram_synchronise_entries+0xa0>
    2384:	00400574 	.word	0x00400574
    2388:	004005b0 	.word	0x004005b0
    238c:	004005b8 	.word	0x004005b8
    2390:	00400578 	.word	0x00400578
    2394:	00400558 	.word	0x00400558
    2398:	0040057c 	.word	0x0040057c
    239c:	00400560 	.word	0x00400560
    23a0:	00400554 	.word	0x00400554
    23a4:	0040055c 	.word	0x0040055c

000023a8 <receive_data>:
    23a8:	e92d4070 	push	{r4, r5, r6, lr}
    23ac:	e59f4180 	ldr	r4, [pc, #384]	; 2534 <receive_data+0x18c>
    23b0:	e24dd018 	sub	sp, sp, #24
    23b4:	e5943000 	ldr	r3, [r4]
    23b8:	e1a05001 	mov	r5, r1
    23bc:	e2433065 	sub	r3, r3, #101	; 0x65
    23c0:	e3530030 	cmp	r3, #48	; 0x30
    23c4:	9a000024 	bls	245c <receive_data+0xb4>
    23c8:	e59f2168 	ldr	r2, [pc, #360]	; 2538 <receive_data+0x190>
    23cc:	e5923018 	ldr	r3, [r2, #24]
    23d0:	e3530002 	cmp	r3, #2
    23d4:	0a00002a 	beq	2484 <receive_data+0xdc>
    23d8:	e3530003 	cmp	r3, #3
    23dc:	0a000031 	beq	24a8 <receive_data+0x100>
    23e0:	e3530001 	cmp	r3, #1
    23e4:	0a000001 	beq	23f0 <receive_data+0x48>
    23e8:	e28dd018 	add	sp, sp, #24
    23ec:	e8bd8070 	pop	{r4, r5, r6, pc}
    23f0:	e5921014 	ldr	r1, [r2, #20]
    23f4:	e3510000 	cmp	r1, #0
    23f8:	1afffffa 	bne	23e8 <receive_data+0x40>
    23fc:	e5923008 	ldr	r3, [r2, #8]
    2400:	e584100c 	str	r1, [r4, #12]
    2404:	e5841010 	str	r1, [r4, #16]
    2408:	e0855003 	add	r5, r5, r3
    240c:	e59f4128 	ldr	r4, [pc, #296]	; 253c <receive_data+0x194>
    2410:	ea000000 	b	2418 <receive_data+0x70>
    2414:	fa000d6a 	blx	59c4 <spin1_delay_us>
    2418:	e5943000 	ldr	r3, [r4]
    241c:	e3a02001 	mov	r2, #1
    2420:	e5930000 	ldr	r0, [r3]
    2424:	e1a01005 	mov	r1, r5
    2428:	fa000dd2 	blx	5b78 <spin1_send_mc_packet>
    242c:	e3500000 	cmp	r0, #0
    2430:	e3a00001 	mov	r0, #1
    2434:	0afffff6 	beq	2414 <receive_data+0x6c>
    2438:	e28d100c 	add	r1, sp, #12
    243c:	e1a00005 	mov	r0, r5
    2440:	e3a0200a 	mov	r2, #10
    2444:	eb000f3b 	bl	6138 <itoa>
    2448:	e28d100c 	add	r1, sp, #12
    244c:	e3a0200a 	mov	r2, #10
    2450:	e3a00000 	mov	r0, #0
    2454:	eb000602 	bl	3c64 <recording_record>
    2458:	eaffffe2 	b	23e8 <receive_data+0x40>
    245c:	e58d1000 	str	r1, [sp]
    2460:	e59f30d8 	ldr	r3, [pc, #216]	; 2540 <receive_data+0x198>
    2464:	e59f20d8 	ldr	r2, [pc, #216]	; 2544 <receive_data+0x19c>
    2468:	e59f10d8 	ldr	r1, [pc, #216]	; 2548 <receive_data+0x1a0>
    246c:	e3a00002 	mov	r0, #2
    2470:	fa000b06 	blx	5090 <io_printf>
    2474:	e59f20bc 	ldr	r2, [pc, #188]	; 2538 <receive_data+0x190>
    2478:	e5923018 	ldr	r3, [r2, #24]
    247c:	e3530002 	cmp	r3, #2
    2480:	1affffd4 	bne	23d8 <receive_data+0x30>
    2484:	e59f40c0 	ldr	r4, [pc, #192]	; 254c <receive_data+0x1a4>
    2488:	e5943000 	ldr	r3, [r4]
    248c:	e3530000 	cmp	r3, #0
    2490:	0a00001c 	beq	2508 <receive_data+0x160>
    2494:	e3530001 	cmp	r3, #1
    2498:	1affffd2 	bne	23e8 <receive_data+0x40>
    249c:	e1a00005 	mov	r0, r5
    24a0:	ebfffc99 	bl	170c <index_manage_proxy_leader>
    24a4:	eaffffcf 	b	23e8 <receive_data+0x40>
    24a8:	e59f609c 	ldr	r6, [pc, #156]	; 254c <receive_data+0x1a4>
    24ac:	e5963000 	ldr	r3, [r6]
    24b0:	e3530000 	cmp	r3, #0
    24b4:	1a00000e 	bne	24f4 <receive_data+0x14c>
    24b8:	e59f2090 	ldr	r2, [pc, #144]	; 2550 <receive_data+0x1a8>
    24bc:	e5923000 	ldr	r3, [r2]
    24c0:	e3530000 	cmp	r3, #0
    24c4:	1a000013 	bne	2518 <receive_data+0x170>
    24c8:	e59f1084 	ldr	r1, [pc, #132]	; 2554 <receive_data+0x1ac>
    24cc:	e5940000 	ldr	r0, [r4]
    24d0:	e3750001 	cmn	r5, #1
    24d4:	e5810000 	str	r0, [r1]
    24d8:	1affffc2 	bne	23e8 <receive_data+0x40>
    24dc:	e2833001 	add	r3, r3, #1
    24e0:	e5823000 	str	r3, [r2]
    24e4:	e353000f 	cmp	r3, #15
    24e8:	1affffbe 	bne	23e8 <receive_data+0x40>
    24ec:	ebfffdf4 	bl	1cc4 <histogram_leader_next_step>
    24f0:	e5963000 	ldr	r3, [r6]
    24f4:	e3530001 	cmp	r3, #1
    24f8:	1affffba 	bne	23e8 <receive_data+0x40>
    24fc:	e1a00005 	mov	r0, r5
    2500:	ebffff57 	bl	2264 <histogram_synchronise_entries>
    2504:	eaffffb7 	b	23e8 <receive_data+0x40>
    2508:	e1a00005 	mov	r0, r5
    250c:	ebfffc36 	bl	15ec <index_leader_awaits_reports>
    2510:	e5943000 	ldr	r3, [r4]
    2514:	eaffffde 	b	2494 <receive_data+0xec>
    2518:	e353000c 	cmp	r3, #12
    251c:	859f1034 	ldrhi	r1, [pc, #52]	; 2558 <receive_data+0x1b0>
    2520:	85940000 	ldrhi	r0, [r4]
    2524:	85810000 	strhi	r0, [r1]
    2528:	e3750001 	cmn	r5, #1
    252c:	1affffec 	bne	24e4 <receive_data+0x13c>
    2530:	eaffffe9 	b	24dc <receive_data+0x134>
    2534:	00400014 	.word	0x00400014
    2538:	00400594 	.word	0x00400594
    253c:	00400550 	.word	0x00400550
    2540:	0000043a 	.word	0x0000043a
    2544:	00006450 	.word	0x00006450
    2548:	000065a8 	.word	0x000065a8
    254c:	00400560 	.word	0x00400560
    2550:	00400578 	.word	0x00400578
    2554:	00400564 	.word	0x00400564
    2558:	0040056c 	.word	0x0040056c

0000255c <count_function_start>:
    255c:	e92d4030 	push	{r4, r5, lr}
    2560:	e59f407c 	ldr	r4, [pc, #124]	; 25e4 <count_function_start+0x88>
    2564:	e24dd014 	sub	sp, sp, #20
    2568:	e5943014 	ldr	r3, [r4, #20]
    256c:	e3530001 	cmp	r3, #1
    2570:	0a000001 	beq	257c <count_function_start+0x20>
    2574:	e28dd014 	add	sp, sp, #20
    2578:	e8bd8030 	pop	{r4, r5, pc}
    257c:	e28d1004 	add	r1, sp, #4
    2580:	e3a0200a 	mov	r2, #10
    2584:	e5940008 	ldr	r0, [r4, #8]
    2588:	eb000eea 	bl	6138 <itoa>
    258c:	e3a0200a 	mov	r2, #10
    2590:	e28d1004 	add	r1, sp, #4
    2594:	e3a00000 	mov	r0, #0
    2598:	eb0005b1 	bl	3c64 <recording_record>
    259c:	e59f3044 	ldr	r3, [pc, #68]	; 25e8 <count_function_start+0x8c>
    25a0:	e3a02000 	mov	r2, #0
    25a4:	e5945008 	ldr	r5, [r4, #8]
    25a8:	e583200c 	str	r2, [r3, #12]
    25ac:	e5832010 	str	r2, [r3, #16]
    25b0:	e59f4034 	ldr	r4, [pc, #52]	; 25ec <count_function_start+0x90>
    25b4:	ea000000 	b	25bc <count_function_start+0x60>
    25b8:	fa000d01 	blx	59c4 <spin1_delay_us>
    25bc:	e5943000 	ldr	r3, [r4]
    25c0:	e3a02001 	mov	r2, #1
    25c4:	e5930000 	ldr	r0, [r3]
    25c8:	e1a01005 	mov	r1, r5
    25cc:	fa000d69 	blx	5b78 <spin1_send_mc_packet>
    25d0:	e3500000 	cmp	r0, #0
    25d4:	e3a00001 	mov	r0, #1
    25d8:	0afffff6 	beq	25b8 <count_function_start+0x5c>
    25dc:	e28dd014 	add	sp, sp, #20
    25e0:	e8bd8030 	pop	{r4, r5, pc}
    25e4:	00400594 	.word	0x00400594
    25e8:	00400014 	.word	0x00400014
    25ec:	00400550 	.word	0x00400550

000025f0 <count_function_receive>:
    25f0:	e59f2078 	ldr	r2, [pc, #120]	; 2670 <count_function_receive+0x80>
    25f4:	e5923014 	ldr	r3, [r2, #20]
    25f8:	e3530000 	cmp	r3, #0
    25fc:	112fff1e 	bxne	lr
    2600:	e92d4030 	push	{r4, r5, lr}
    2604:	e5924008 	ldr	r4, [r2, #8]
    2608:	e59f2064 	ldr	r2, [pc, #100]	; 2674 <count_function_receive+0x84>
    260c:	e24dd014 	sub	sp, sp, #20
    2610:	e0804004 	add	r4, r0, r4
    2614:	e582300c 	str	r3, [r2, #12]
    2618:	e5823010 	str	r3, [r2, #16]
    261c:	e59f5054 	ldr	r5, [pc, #84]	; 2678 <count_function_receive+0x88>
    2620:	ea000000 	b	2628 <count_function_receive+0x38>
    2624:	fa000ce6 	blx	59c4 <spin1_delay_us>
    2628:	e5953000 	ldr	r3, [r5]
    262c:	e3a02001 	mov	r2, #1
    2630:	e5930000 	ldr	r0, [r3]
    2634:	e1a01004 	mov	r1, r4
    2638:	fa000d4e 	blx	5b78 <spin1_send_mc_packet>
    263c:	e3500000 	cmp	r0, #0
    2640:	e3a00001 	mov	r0, #1
    2644:	0afffff6 	beq	2624 <count_function_receive+0x34>
    2648:	e28d1004 	add	r1, sp, #4
    264c:	e1a00004 	mov	r0, r4
    2650:	e3a0200a 	mov	r2, #10
    2654:	eb000eb7 	bl	6138 <itoa>
    2658:	e28d1004 	add	r1, sp, #4
    265c:	e3a0200a 	mov	r2, #10
    2660:	e3a00000 	mov	r0, #0
    2664:	eb00057e 	bl	3c64 <recording_record>
    2668:	e28dd014 	add	sp, sp, #20
    266c:	e8bd8030 	pop	{r4, r5, pc}
    2670:	00400594 	.word	0x00400594
    2674:	00400014 	.word	0x00400014
    2678:	00400550 	.word	0x00400550

0000267c <send_state>:
    267c:	e59f3048 	ldr	r3, [pc, #72]	; 26cc <send_state+0x50>
    2680:	e3a02000 	mov	r2, #0
    2684:	e2411107 	sub	r1, r1, #-1073741823	; 0xc0000001
    2688:	e92d4070 	push	{r4, r5, r6, lr}
    268c:	e1a04101 	lsl	r4, r1, #2
    2690:	e1a06000 	mov	r6, r0
    2694:	e583200c 	str	r2, [r3, #12]
    2698:	e5832010 	str	r2, [r3, #16]
    269c:	e59f502c 	ldr	r5, [pc, #44]	; 26d0 <send_state+0x54>
    26a0:	ea000000 	b	26a8 <send_state+0x2c>
    26a4:	fa000cc6 	blx	59c4 <spin1_delay_us>
    26a8:	e5953000 	ldr	r3, [r5]
    26ac:	e3a02001 	mov	r2, #1
    26b0:	e7930004 	ldr	r0, [r3, r4]
    26b4:	e1a01006 	mov	r1, r6
    26b8:	fa000d2e 	blx	5b78 <spin1_send_mc_packet>
    26bc:	e3500000 	cmp	r0, #0
    26c0:	e3a00001 	mov	r0, #1
    26c4:	0afffff6 	beq	26a4 <send_state+0x28>
    26c8:	e8bd8070 	pop	{r4, r5, r6, pc}
    26cc:	00400014 	.word	0x00400014
    26d0:	00400550 	.word	0x00400550

000026d4 <retrieve_header_data>:
    26d4:	e92d41f0 	push	{r4, r5, r6, r7, r8, lr}
    26d8:	e24dd008 	sub	sp, sp, #8
    26dc:	fa000d2c 	blx	5b94 <spin1_get_chip_id>
    26e0:	e1a04000 	mov	r4, r0
    26e4:	fa000d27 	blx	5b88 <spin1_get_core_id>
    26e8:	e59f3158 	ldr	r3, [pc, #344]	; 2848 <retrieve_header_data+0x174>
    26ec:	e59f2158 	ldr	r2, [pc, #344]	; 284c <retrieve_header_data+0x178>
    26f0:	e58d4000 	str	r4, [sp]
    26f4:	e59f1154 	ldr	r1, [pc, #340]	; 2850 <retrieve_header_data+0x17c>
    26f8:	e59f4154 	ldr	r4, [pc, #340]	; 2854 <retrieve_header_data+0x180>
    26fc:	e58d0004 	str	r0, [sp, #4]
    2700:	e3a00002 	mov	r0, #2
    2704:	fa000a61 	blx	5090 <io_printf>
    2708:	eb0002d4 	bl	3260 <data_specification_get_data_address>
    270c:	e1a01000 	mov	r1, r0
    2710:	e3a00001 	mov	r0, #1
    2714:	eb000307 	bl	3338 <data_specification_get_region>
    2718:	e59fe138 	ldr	lr, [pc, #312]	; 2858 <retrieve_header_data+0x184>
    271c:	e59fc138 	ldr	ip, [pc, #312]	; 285c <retrieve_header_data+0x188>
    2720:	e5901008 	ldr	r1, [r0, #8]
    2724:	e5903014 	ldr	r3, [r0, #20]
    2728:	e8900104 	ldm	r0, {r2, r8}
    272c:	e590700c 	ldr	r7, [r0, #12]
    2730:	e5906010 	ldr	r6, [r0, #16]
    2734:	e5905018 	ldr	r5, [r0, #24]
    2738:	e5841008 	str	r1, [r4, #8]
    273c:	e59f011c 	ldr	r0, [pc, #284]	; 2860 <retrieve_header_data+0x18c>
    2740:	e59f111c 	ldr	r1, [pc, #284]	; 2864 <retrieve_header_data+0x190>
    2744:	e3530001 	cmp	r3, #1
    2748:	e5843014 	str	r3, [r4, #20]
    274c:	e3a03000 	mov	r3, #0
    2750:	e58e3000 	str	r3, [lr]
    2754:	e58c3000 	str	r3, [ip]
    2758:	e5813000 	str	r3, [r1]
    275c:	e5803000 	str	r3, [r0]
    2760:	159f1100 	ldrne	r1, [pc, #256]	; 2868 <retrieve_header_data+0x194>
    2764:	059f30fc 	ldreq	r3, [pc, #252]	; 2868 <retrieve_header_data+0x194>
    2768:	15813000 	strne	r3, [r1]
    276c:	05832000 	streq	r2, [r3]
    2770:	e8840104 	stm	r4, {r2, r8}
    2774:	e584700c 	str	r7, [r4, #12]
    2778:	e5846010 	str	r6, [r4, #16]
    277c:	e5845018 	str	r5, [r4, #24]
    2780:	e59f30e4 	ldr	r3, [pc, #228]	; 286c <retrieve_header_data+0x198>
    2784:	e58d2000 	str	r2, [sp]
    2788:	e59f10e0 	ldr	r1, [pc, #224]	; 2870 <retrieve_header_data+0x19c>
    278c:	e59f20b8 	ldr	r2, [pc, #184]	; 284c <retrieve_header_data+0x178>
    2790:	e3a00002 	mov	r0, #2
    2794:	fa000a3d 	blx	5090 <io_printf>
    2798:	e5943004 	ldr	r3, [r4, #4]
    279c:	e58d3000 	str	r3, [sp]
    27a0:	e59f20a4 	ldr	r2, [pc, #164]	; 284c <retrieve_header_data+0x178>
    27a4:	e59f30c8 	ldr	r3, [pc, #200]	; 2874 <retrieve_header_data+0x1a0>
    27a8:	e59f10c8 	ldr	r1, [pc, #200]	; 2878 <retrieve_header_data+0x1a4>
    27ac:	e3a00002 	mov	r0, #2
    27b0:	fa000a36 	blx	5090 <io_printf>
    27b4:	e5943008 	ldr	r3, [r4, #8]
    27b8:	e58d3000 	str	r3, [sp]
    27bc:	e59f2088 	ldr	r2, [pc, #136]	; 284c <retrieve_header_data+0x178>
    27c0:	e59f30b4 	ldr	r3, [pc, #180]	; 287c <retrieve_header_data+0x1a8>
    27c4:	e59f10b4 	ldr	r1, [pc, #180]	; 2880 <retrieve_header_data+0x1ac>
    27c8:	e3a00002 	mov	r0, #2
    27cc:	fa000a2f 	blx	5090 <io_printf>
    27d0:	e594300c 	ldr	r3, [r4, #12]
    27d4:	e58d3000 	str	r3, [sp]
    27d8:	e59f206c 	ldr	r2, [pc, #108]	; 284c <retrieve_header_data+0x178>
    27dc:	e59f30a0 	ldr	r3, [pc, #160]	; 2884 <retrieve_header_data+0x1b0>
    27e0:	e59f10a0 	ldr	r1, [pc, #160]	; 2888 <retrieve_header_data+0x1b4>
    27e4:	e3a00002 	mov	r0, #2
    27e8:	fa000a28 	blx	5090 <io_printf>
    27ec:	e5943010 	ldr	r3, [r4, #16]
    27f0:	e58d3000 	str	r3, [sp]
    27f4:	e59f2050 	ldr	r2, [pc, #80]	; 284c <retrieve_header_data+0x178>
    27f8:	e59f308c 	ldr	r3, [pc, #140]	; 288c <retrieve_header_data+0x1b8>
    27fc:	e59f108c 	ldr	r1, [pc, #140]	; 2890 <retrieve_header_data+0x1bc>
    2800:	e3a00002 	mov	r0, #2
    2804:	fa000a21 	blx	5090 <io_printf>
    2808:	e5943014 	ldr	r3, [r4, #20]
    280c:	e58d3000 	str	r3, [sp]
    2810:	e59f2034 	ldr	r2, [pc, #52]	; 284c <retrieve_header_data+0x178>
    2814:	e59f3078 	ldr	r3, [pc, #120]	; 2894 <retrieve_header_data+0x1c0>
    2818:	e59f1078 	ldr	r1, [pc, #120]	; 2898 <retrieve_header_data+0x1c4>
    281c:	e3a00002 	mov	r0, #2
    2820:	fa000a1a 	blx	5090 <io_printf>
    2824:	e5943018 	ldr	r3, [r4, #24]
    2828:	e58d3000 	str	r3, [sp]
    282c:	e59f2018 	ldr	r2, [pc, #24]	; 284c <retrieve_header_data+0x178>
    2830:	e59f3064 	ldr	r3, [pc, #100]	; 289c <retrieve_header_data+0x1c8>
    2834:	e59f1064 	ldr	r1, [pc, #100]	; 28a0 <retrieve_header_data+0x1cc>
    2838:	e3a00002 	mov	r0, #2
    283c:	fa000a13 	blx	5090 <io_printf>
    2840:	e28dd008 	add	sp, sp, #8
    2844:	e8bd81f0 	pop	{r4, r5, r6, r7, r8, pc}
    2848:	00000456 	.word	0x00000456
    284c:	00006450 	.word	0x00006450
    2850:	000065d4 	.word	0x000065d4
    2854:	00400594 	.word	0x00400594
    2858:	00400578 	.word	0x00400578
    285c:	00400560 	.word	0x00400560
    2860:	00400574 	.word	0x00400574
    2864:	00400568 	.word	0x00400568
    2868:	004005b8 	.word	0x004005b8
    286c:	00000471 	.word	0x00000471
    2870:	00006610 	.word	0x00006610
    2874:	00000472 	.word	0x00000472
    2878:	00006638 	.word	0x00006638
    287c:	00000473 	.word	0x00000473
    2880:	0000665c 	.word	0x0000665c
    2884:	00000474 	.word	0x00000474
    2888:	00006680 	.word	0x00006680
    288c:	00000475 	.word	0x00000475
    2890:	000066a8 	.word	0x000066a8
    2894:	00000476 	.word	0x00000476
    2898:	000066c8 	.word	0x000066c8
    289c:	00000477 	.word	0x00000477
    28a0:	000066f0 	.word	0x000066f0

000028a4 <update>:
    28a4:	e92d40f0 	push	{r4, r5, r6, r7, lr}
    28a8:	e59f4214 	ldr	r4, [pc, #532]	; 2ac4 <update+0x220>
    28ac:	e24dd01c 	sub	sp, sp, #28
    28b0:	e5943000 	ldr	r3, [r4]
    28b4:	e2432064 	sub	r2, r3, #100	; 0x64
    28b8:	e3520030 	cmp	r2, #48	; 0x30
    28bc:	e2833001 	add	r3, r3, #1
    28c0:	e5843000 	str	r3, [r4]
    28c4:	9a000026 	bls	2964 <update+0xc0>
    28c8:	e59f61f8 	ldr	r6, [pc, #504]	; 2ac8 <update+0x224>
    28cc:	e5963018 	ldr	r3, [r6, #24]
    28d0:	e3530003 	cmp	r3, #3
    28d4:	0a00002e 	beq	2994 <update+0xf0>
    28d8:	e5945000 	ldr	r5, [r4]
    28dc:	e5943018 	ldr	r3, [r4, #24]
    28e0:	e59f21dc 	ldr	r2, [pc, #476]	; 2ac4 <update+0x220>
    28e4:	e3530001 	cmp	r3, #1
    28e8:	0a000010 	beq	2930 <update+0x8c>
    28ec:	e5923014 	ldr	r3, [r2, #20]
    28f0:	e1530005 	cmp	r3, r5
    28f4:	8a00000d 	bhi	2930 <update+0x8c>
    28f8:	e59f31cc 	ldr	r3, [pc, #460]	; 2acc <update+0x228>
    28fc:	e5933000 	ldr	r3, [r3]
    2900:	e3530000 	cmp	r3, #0
    2904:	0a000005 	beq	2920 <update+0x7c>
    2908:	e59f31c0 	ldr	r3, [pc, #448]	; 2ad0 <update+0x22c>
    290c:	e59f21c0 	ldr	r2, [pc, #448]	; 2ad4 <update+0x230>
    2910:	e59f11c0 	ldr	r1, [pc, #448]	; 2ad8 <update+0x234>
    2914:	e3a00002 	mov	r0, #2
    2918:	fa0009dc 	blx	5090 <io_printf>
    291c:	eb0004ed 	bl	3cd8 <recording_finalise>
    2920:	e59f01b4 	ldr	r0, [pc, #436]	; 2adc <update+0x238>
    2924:	eb0002c0 	bl	342c <simulation_handle_pause_resume>
    2928:	e28dd01c 	add	sp, sp, #28
    292c:	e8bd80f0 	pop	{r4, r5, r6, r7, pc}
    2930:	e3550001 	cmp	r5, #1
    2934:	0a000034 	beq	2a0c <update+0x168>
    2938:	e59f618c 	ldr	r6, [pc, #396]	; 2acc <update+0x228>
    293c:	e5963004 	ldr	r3, [r6, #4]
    2940:	e1530005 	cmp	r3, r5
    2944:	0a00002b 	beq	29f8 <update+0x154>
    2948:	e5963000 	ldr	r3, [r6]
    294c:	e3530000 	cmp	r3, #0
    2950:	0afffff4 	beq	2928 <update+0x84>
    2954:	e5940000 	ldr	r0, [r4]
    2958:	eb000621 	bl	41e4 <recording_do_timestep_update>
    295c:	e28dd01c 	add	sp, sp, #28
    2960:	e8bd80f0 	pop	{r4, r5, r6, r7, pc}
    2964:	e5942014 	ldr	r2, [r4, #20]
    2968:	e59f6158 	ldr	r6, [pc, #344]	; 2ac8 <update+0x224>
    296c:	e58d3000 	str	r3, [sp]
    2970:	e58d2004 	str	r2, [sp, #4]
    2974:	e59f3164 	ldr	r3, [pc, #356]	; 2ae0 <update+0x23c>
    2978:	e59f2154 	ldr	r2, [pc, #340]	; 2ad4 <update+0x230>
    297c:	e59f1160 	ldr	r1, [pc, #352]	; 2ae4 <update+0x240>
    2980:	e3a00002 	mov	r0, #2
    2984:	fa0009c1 	blx	5090 <io_printf>
    2988:	e5963018 	ldr	r3, [r6, #24]
    298c:	e3530003 	cmp	r3, #3
    2990:	1affffd0 	bne	28d8 <update+0x34>
    2994:	e59f514c 	ldr	r5, [pc, #332]	; 2ae8 <update+0x244>
    2998:	e5953000 	ldr	r3, [r5]
    299c:	e3530000 	cmp	r3, #0
    29a0:	0affffcc 	beq	28d8 <update+0x34>
    29a4:	e59f7140 	ldr	r7, [pc, #320]	; 2aec <update+0x248>
    29a8:	e5973000 	ldr	r3, [r7]
    29ac:	e3530000 	cmp	r3, #0
    29b0:	0affffc8 	beq	28d8 <update+0x34>
    29b4:	e59f3134 	ldr	r3, [pc, #308]	; 2af0 <update+0x24c>
    29b8:	e59f2114 	ldr	r2, [pc, #276]	; 2ad4 <update+0x230>
    29bc:	e59f1130 	ldr	r1, [pc, #304]	; 2af4 <update+0x250>
    29c0:	e3a00002 	mov	r0, #2
    29c4:	fa0009b1 	blx	5090 <io_printf>
    29c8:	e5972000 	ldr	r2, [r7]
    29cc:	e5953000 	ldr	r3, [r5]
    29d0:	e5945000 	ldr	r5, [r4]
    29d4:	e0523003 	subs	r3, r2, r3
    29d8:	e59f70e4 	ldr	r7, [pc, #228]	; 2ac4 <update+0x220>
    29dc:	e0622005 	rsb	r2, r2, r5
    29e0:	1a000033 	bne	2ab4 <update+0x210>
    29e4:	e3520005 	cmp	r2, #5
    29e8:	1affffbb 	bne	28dc <update+0x38>
    29ec:	ebfffcb4 	bl	1cc4 <histogram_leader_next_step>
    29f0:	e5975000 	ldr	r5, [r7]
    29f4:	eaffffb8 	b	28dc <update+0x38>
    29f8:	eb000218 	bl	3260 <data_specification_get_data_address>
    29fc:	e1a01000 	mov	r1, r0
    2a00:	e3a00001 	mov	r0, #1
    2a04:	eb00024b 	bl	3338 <data_specification_get_region>
    2a08:	eaffffce 	b	2948 <update+0xa4>
    2a0c:	ebffff30 	bl	26d4 <retrieve_header_data>
    2a10:	e5963018 	ldr	r3, [r6, #24]
    2a14:	e59f60ac 	ldr	r6, [pc, #172]	; 2ac8 <update+0x224>
    2a18:	e3530001 	cmp	r3, #1
    2a1c:	0a000008 	beq	2a44 <update+0x1a0>
    2a20:	e3530002 	cmp	r3, #2
    2a24:	1a000020 	bne	2aac <update+0x208>
    2a28:	ebfff9de 	bl	11a8 <index_initialise_index>
    2a2c:	e59f30c4 	ldr	r3, [pc, #196]	; 2af8 <update+0x254>
    2a30:	e3a00000 	mov	r0, #0
    2a34:	e5835000 	str	r5, [r3]
    2a38:	e59f608c 	ldr	r6, [pc, #140]	; 2acc <update+0x228>
    2a3c:	ebfff7a0 	bl	8c4 <send_string>
    2a40:	eaffffc0 	b	2948 <update+0xa4>
    2a44:	e5963014 	ldr	r3, [r6, #20]
    2a48:	e3530001 	cmp	r3, #1
    2a4c:	1a000016 	bne	2aac <update+0x208>
    2a50:	e28d100c 	add	r1, sp, #12
    2a54:	e3a0200a 	mov	r2, #10
    2a58:	e5960008 	ldr	r0, [r6, #8]
    2a5c:	eb000db5 	bl	6138 <itoa>
    2a60:	e28d100c 	add	r1, sp, #12
    2a64:	e3a0200a 	mov	r2, #10
    2a68:	e3a00000 	mov	r0, #0
    2a6c:	eb00047c 	bl	3c64 <recording_record>
    2a70:	e3a03000 	mov	r3, #0
    2a74:	e5966008 	ldr	r6, [r6, #8]
    2a78:	e584300c 	str	r3, [r4, #12]
    2a7c:	e5843010 	str	r3, [r4, #16]
    2a80:	e59f5074 	ldr	r5, [pc, #116]	; 2afc <update+0x258>
    2a84:	ea000000 	b	2a8c <update+0x1e8>
    2a88:	fa000bcd 	blx	59c4 <spin1_delay_us>
    2a8c:	e5953000 	ldr	r3, [r5]
    2a90:	e3a02001 	mov	r2, #1
    2a94:	e5930000 	ldr	r0, [r3]
    2a98:	e1a01006 	mov	r1, r6
    2a9c:	fa000c35 	blx	5b78 <spin1_send_mc_packet>
    2aa0:	e3500000 	cmp	r0, #0
    2aa4:	e3a00001 	mov	r0, #1
    2aa8:	0afffff6 	beq	2a88 <update+0x1e4>
    2aac:	e59f6018 	ldr	r6, [pc, #24]	; 2acc <update+0x228>
    2ab0:	eaffffa4 	b	2948 <update+0xa4>
    2ab4:	e0833103 	add	r3, r3, r3, lsl #2
    2ab8:	e1520003 	cmp	r2, r3
    2abc:	1affff86 	bne	28dc <update+0x38>
    2ac0:	eaffffc9 	b	29ec <update+0x148>
    2ac4:	00400014 	.word	0x00400014
    2ac8:	00400594 	.word	0x00400594
    2acc:	00400000 	.word	0x00400000
    2ad0:	0000050a 	.word	0x0000050a
    2ad4:	00006450 	.word	0x00006450
    2ad8:	00006760 	.word	0x00006760
    2adc:	000003cc 	.word	0x000003cc
    2ae0:	000004ef 	.word	0x000004ef
    2ae4:	00006718 	.word	0x00006718
    2ae8:	00400564 	.word	0x00400564
    2aec:	0040056c 	.word	0x0040056c
    2af0:	000004f6 	.word	0x000004f6
    2af4:	00006740 	.word	0x00006740
    2af8:	00400574 	.word	0x00400574
    2afc:	00400550 	.word	0x00400550

00002b00 <record_unqiue_items>:
    2b00:	e59f3138 	ldr	r3, [pc, #312]	; 2c40 <record_unqiue_items+0x140>
    2b04:	e92d4ff0 	push	{r4, r5, r6, r7, r8, r9, sl, fp, lr}
    2b08:	e28db020 	add	fp, sp, #32
    2b0c:	e24dd01c 	sub	sp, sp, #28
    2b10:	e5934000 	ldr	r4, [r3]
    2b14:	e1a05000 	mov	r5, r0
    2b18:	e3a06020 	mov	r6, #32
    2b1c:	e50b1038 	str	r1, [fp, #-56]	; 0xffffffc8
    2b20:	e1d430b8 	ldrh	r3, [r4, #8]
    2b24:	e3530000 	cmp	r3, #0
    2b28:	0a000005 	beq	2b44 <record_unqiue_items+0x44>
    2b2c:	e1d430b6 	ldrh	r3, [r4, #6]
    2b30:	e1550003 	cmp	r5, r3
    2b34:	8a000004 	bhi	2b4c <record_unqiue_items+0x4c>
    2b38:	e51b2038 	ldr	r2, [fp, #-56]	; 0xffffffc8
    2b3c:	e1520003 	cmp	r2, r3
    2b40:	2a000006 	bcs	2b60 <record_unqiue_items+0x60>
    2b44:	e24bd020 	sub	sp, fp, #32
    2b48:	e8bd8ff0 	pop	{r4, r5, r6, r7, r8, r9, sl, fp, pc}
    2b4c:	e5944010 	ldr	r4, [r4, #16]
    2b50:	e1d430b6 	ldrh	r3, [r4, #6]
    2b54:	e1550003 	cmp	r5, r3
    2b58:	8afffff0 	bhi	2b20 <record_unqiue_items+0x20>
    2b5c:	eafffff5 	b	2b38 <record_unqiue_items+0x38>
    2b60:	e59f30dc 	ldr	r3, [pc, #220]	; 2c44 <record_unqiue_items+0x144>
    2b64:	e5d4c004 	ldrb	ip, [r4, #4]
    2b68:	e593200c 	ldr	r2, [r3, #12]
    2b6c:	e50bd03c 	str	sp, [fp, #-60]	; 0xffffffc4
    2b70:	e2823007 	add	r3, r2, #7
    2b74:	e3c33007 	bic	r3, r3, #7
    2b78:	e04dd003 	sub	sp, sp, r3
    2b7c:	e35c0000 	cmp	ip, #0
    2b80:	e1a0100d 	mov	r1, sp
    2b84:	e1a07122 	lsr	r7, r2, #2
    2b88:	e594e000 	ldr	lr, [r4]
    2b8c:	0a00000c 	beq	2bc4 <record_unqiue_items+0xc4>
    2b90:	e08ea10c 	add	sl, lr, ip, lsl #2
    2b94:	e1a0000d 	mov	r0, sp
    2b98:	e49e3004 	ldr	r3, [lr], #4
    2b9c:	e5c03003 	strb	r3, [r0, #3]
    2ba0:	e1a09c23 	lsr	r9, r3, #24
    2ba4:	e1a08823 	lsr	r8, r3, #16
    2ba8:	e15a000e 	cmp	sl, lr
    2bac:	e1a03423 	lsr	r3, r3, #8
    2bb0:	e5c09000 	strb	r9, [r0]
    2bb4:	e5c08001 	strb	r8, [r0, #1]
    2bb8:	e5c03002 	strb	r3, [r0, #2]
    2bbc:	e0800007 	add	r0, r0, r7
    2bc0:	1afffff4 	bne	2b98 <record_unqiue_items+0x98>
    2bc4:	e15c0007 	cmp	ip, r7
    2bc8:	e1a0300c 	mov	r3, ip
    2bcc:	2a00000a 	bcs	2bfc <record_unqiue_items+0xfc>
    2bd0:	e157000c 	cmp	r7, ip
    2bd4:	9a000008 	bls	2bfc <record_unqiue_items+0xfc>
    2bd8:	e02c1c97 	mla	ip, r7, ip, r1
    2bdc:	e2833001 	add	r3, r3, #1
    2be0:	e1570003 	cmp	r7, r3
    2be4:	e5cc6000 	strb	r6, [ip]
    2be8:	e5cc6001 	strb	r6, [ip, #1]
    2bec:	e5cc6002 	strb	r6, [ip, #2]
    2bf0:	e5cc6003 	strb	r6, [ip, #3]
    2bf4:	e08cc007 	add	ip, ip, r7
    2bf8:	1afffff7 	bne	2bdc <record_unqiue_items+0xdc>
    2bfc:	e3a00000 	mov	r0, #0
    2c00:	eb000417 	bl	3c64 <recording_record>
    2c04:	e3a0200a 	mov	r2, #10
    2c08:	e24b1030 	sub	r1, fp, #48	; 0x30
    2c0c:	e51bd03c 	ldr	sp, [fp, #-60]	; 0xffffffc4
    2c10:	e1d400ba 	ldrh	r0, [r4, #10]
    2c14:	eb000d47 	bl	6138 <itoa>
    2c18:	e3a0200a 	mov	r2, #10
    2c1c:	e24b1030 	sub	r1, fp, #48	; 0x30
    2c20:	e3a00000 	mov	r0, #0
    2c24:	eb00040e 	bl	3c64 <recording_record>
    2c28:	e5944010 	ldr	r4, [r4, #16]
    2c2c:	e51b2038 	ldr	r2, [fp, #-56]	; 0xffffffc8
    2c30:	e1d430b6 	ldrh	r3, [r4, #6]
    2c34:	e1520003 	cmp	r2, r3
    2c38:	2affffb8 	bcs	2b20 <record_unqiue_items+0x20>
    2c3c:	eaffffc0 	b	2b44 <record_unqiue_items+0x44>
    2c40:	00400554 	.word	0x00400554
    2c44:	00400594 	.word	0x00400594

00002c48 <record_tcm_dict>:
    2c48:	e59f3138 	ldr	r3, [pc, #312]	; 2d88 <record_tcm_dict+0x140>
    2c4c:	e92d4ff0 	push	{r4, r5, r6, r7, r8, r9, sl, fp, lr}
    2c50:	e28db020 	add	fp, sp, #32
    2c54:	e24dd01c 	sub	sp, sp, #28
    2c58:	e5934000 	ldr	r4, [r3]
    2c5c:	e1a05000 	mov	r5, r0
    2c60:	e3a06020 	mov	r6, #32
    2c64:	e50b1038 	str	r1, [fp, #-56]	; 0xffffffc8
    2c68:	e1d430b8 	ldrh	r3, [r4, #8]
    2c6c:	e3530000 	cmp	r3, #0
    2c70:	0a000005 	beq	2c8c <record_tcm_dict+0x44>
    2c74:	e1d430b6 	ldrh	r3, [r4, #6]
    2c78:	e1530005 	cmp	r3, r5
    2c7c:	3a000004 	bcc	2c94 <record_tcm_dict+0x4c>
    2c80:	e51b2038 	ldr	r2, [fp, #-56]	; 0xffffffc8
    2c84:	e1520003 	cmp	r2, r3
    2c88:	2a000006 	bcs	2ca8 <record_tcm_dict+0x60>
    2c8c:	e24bd020 	sub	sp, fp, #32
    2c90:	e8bd8ff0 	pop	{r4, r5, r6, r7, r8, r9, sl, fp, pc}
    2c94:	e5944010 	ldr	r4, [r4, #16]
    2c98:	e1d430b6 	ldrh	r3, [r4, #6]
    2c9c:	e1550003 	cmp	r5, r3
    2ca0:	8afffff0 	bhi	2c68 <record_tcm_dict+0x20>
    2ca4:	eafffff5 	b	2c80 <record_tcm_dict+0x38>
    2ca8:	e59f30dc 	ldr	r3, [pc, #220]	; 2d8c <record_tcm_dict+0x144>
    2cac:	e5d4c004 	ldrb	ip, [r4, #4]
    2cb0:	e593200c 	ldr	r2, [r3, #12]
    2cb4:	e50bd03c 	str	sp, [fp, #-60]	; 0xffffffc4
    2cb8:	e2823007 	add	r3, r2, #7
    2cbc:	e3c33007 	bic	r3, r3, #7
    2cc0:	e04dd003 	sub	sp, sp, r3
    2cc4:	e35c0000 	cmp	ip, #0
    2cc8:	e1a0100d 	mov	r1, sp
    2ccc:	e1a07122 	lsr	r7, r2, #2
    2cd0:	e594e000 	ldr	lr, [r4]
    2cd4:	0a00000c 	beq	2d0c <record_tcm_dict+0xc4>
    2cd8:	e08ea10c 	add	sl, lr, ip, lsl #2
    2cdc:	e1a0000d 	mov	r0, sp
    2ce0:	e49e3004 	ldr	r3, [lr], #4
    2ce4:	e5c03003 	strb	r3, [r0, #3]
    2ce8:	e1a09c23 	lsr	r9, r3, #24
    2cec:	e1a08823 	lsr	r8, r3, #16
    2cf0:	e15a000e 	cmp	sl, lr
    2cf4:	e1a03423 	lsr	r3, r3, #8
    2cf8:	e5c09000 	strb	r9, [r0]
    2cfc:	e5c08001 	strb	r8, [r0, #1]
    2d00:	e5c03002 	strb	r3, [r0, #2]
    2d04:	e0800007 	add	r0, r0, r7
    2d08:	1afffff4 	bne	2ce0 <record_tcm_dict+0x98>
    2d0c:	e15c0007 	cmp	ip, r7
    2d10:	e1a0300c 	mov	r3, ip
    2d14:	2a00000a 	bcs	2d44 <record_tcm_dict+0xfc>
    2d18:	e157000c 	cmp	r7, ip
    2d1c:	9a000008 	bls	2d44 <record_tcm_dict+0xfc>
    2d20:	e02c1c97 	mla	ip, r7, ip, r1
    2d24:	e2833001 	add	r3, r3, #1
    2d28:	e1570003 	cmp	r7, r3
    2d2c:	e5cc6000 	strb	r6, [ip]
    2d30:	e5cc6001 	strb	r6, [ip, #1]
    2d34:	e5cc6002 	strb	r6, [ip, #2]
    2d38:	e5cc6003 	strb	r6, [ip, #3]
    2d3c:	e08cc007 	add	ip, ip, r7
    2d40:	1afffff7 	bne	2d24 <record_tcm_dict+0xdc>
    2d44:	e3a00000 	mov	r0, #0
    2d48:	eb0003c5 	bl	3c64 <recording_record>
    2d4c:	e3a0200a 	mov	r2, #10
    2d50:	e24b1030 	sub	r1, fp, #48	; 0x30
    2d54:	e51bd03c 	ldr	sp, [fp, #-60]	; 0xffffffc4
    2d58:	e1d400ba 	ldrh	r0, [r4, #10]
    2d5c:	eb000cf5 	bl	6138 <itoa>
    2d60:	e3a0200a 	mov	r2, #10
    2d64:	e24b1030 	sub	r1, fp, #48	; 0x30
    2d68:	e3a00000 	mov	r0, #0
    2d6c:	eb0003bc 	bl	3c64 <recording_record>
    2d70:	e5944010 	ldr	r4, [r4, #16]
    2d74:	e51b2038 	ldr	r2, [fp, #-56]	; 0xffffffc8
    2d78:	e1d430b6 	ldrh	r3, [r4, #6]
    2d7c:	e1520003 	cmp	r2, r3
    2d80:	2affffb8 	bcs	2c68 <record_tcm_dict+0x20>
    2d84:	eaffffc0 	b	2c8c <record_tcm_dict+0x44>
    2d88:	00400554 	.word	0x00400554
    2d8c:	00400594 	.word	0x00400594

00002d90 <record_sdram_dict>:
    2d90:	e92d4ff0 	push	{r4, r5, r6, r7, r8, r9, sl, fp, lr}
    2d94:	e28db020 	add	fp, sp, #32
    2d98:	e24dd024 	sub	sp, sp, #36	; 0x24
    2d9c:	eb00012f 	bl	3260 <data_specification_get_data_address>
    2da0:	e1a01000 	mov	r1, r0
    2da4:	e3a00006 	mov	r0, #6
    2da8:	eb000162 	bl	3338 <data_specification_get_region>
    2dac:	e59f315c 	ldr	r3, [pc, #348]	; 2f10 <record_sdram_dict+0x180>
    2db0:	e5933004 	ldr	r3, [r3, #4]
    2db4:	e3530000 	cmp	r3, #0
    2db8:	0a000048 	beq	2ee0 <record_sdram_dict+0x150>
    2dbc:	e3a03000 	mov	r3, #0
    2dc0:	e1a05000 	mov	r5, r0
    2dc4:	e1a07003 	mov	r7, r3
    2dc8:	e3a06020 	mov	r6, #32
    2dcc:	e50b3038 	str	r3, [fp, #-56]	; 0xffffffc8
    2dd0:	e7954107 	ldr	r4, [r5, r7, lsl #2]
    2dd4:	e3e03003 	mvn	r3, #3
    2dd8:	e0673003 	rsb	r3, r7, r3
    2ddc:	e1a07107 	lsl	r7, r7, #2
    2de0:	e0934004 	adds	r4, r3, r4
    2de4:	e0853007 	add	r3, r5, r7
    2de8:	e50b303c 	str	r3, [fp, #-60]	; 0xffffffc4
    2dec:	0a00003d 	beq	2ee8 <record_sdram_dict+0x158>
    2df0:	e3a03000 	mov	r3, #0
    2df4:	e1a0a104 	lsl	sl, r4, #2
    2df8:	e2871010 	add	r1, r7, #16
    2dfc:	e1a0200a 	mov	r2, sl
    2e00:	e0851001 	add	r1, r5, r1
    2e04:	e1a00003 	mov	r0, r3
    2e08:	eb000ccb 	bl	613c <memcpy>
    2e0c:	e59f2100 	ldr	r2, [pc, #256]	; 2f14 <record_sdram_dict+0x184>
    2e10:	e50bd040 	str	sp, [fp, #-64]	; 0xffffffc0
    2e14:	e592200c 	ldr	r2, [r2, #12]
    2e18:	e2823007 	add	r3, r2, #7
    2e1c:	e3c33007 	bic	r3, r3, #7
    2e20:	e04dd003 	sub	sp, sp, r3
    2e24:	e1a0100d 	mov	r1, sp
    2e28:	e1a0c00d 	mov	ip, sp
    2e2c:	e1a0e122 	lsr	lr, r2, #2
    2e30:	e080a00a 	add	sl, r0, sl
    2e34:	e4903004 	ldr	r3, [r0], #4
    2e38:	e5cc3003 	strb	r3, [ip, #3]
    2e3c:	e1a09c23 	lsr	r9, r3, #24
    2e40:	e1a08823 	lsr	r8, r3, #16
    2e44:	e150000a 	cmp	r0, sl
    2e48:	e1a03423 	lsr	r3, r3, #8
    2e4c:	e5cc9000 	strb	r9, [ip]
    2e50:	e5cc8001 	strb	r8, [ip, #1]
    2e54:	e5cc3002 	strb	r3, [ip, #2]
    2e58:	e08cc00e 	add	ip, ip, lr
    2e5c:	1afffff4 	bne	2e34 <record_sdram_dict+0xa4>
    2e60:	e1a03004 	mov	r3, r4
    2e64:	e154000e 	cmp	r4, lr
    2e68:	3024149e 	mlacc	r4, lr, r4, r1
    2e6c:	2a000007 	bcs	2e90 <record_sdram_dict+0x100>
    2e70:	e2833001 	add	r3, r3, #1
    2e74:	e153000e 	cmp	r3, lr
    2e78:	e5c46000 	strb	r6, [r4]
    2e7c:	e5c46001 	strb	r6, [r4, #1]
    2e80:	e5c46002 	strb	r6, [r4, #2]
    2e84:	e5c46003 	strb	r6, [r4, #3]
    2e88:	e084400e 	add	r4, r4, lr
    2e8c:	1afffff7 	bne	2e70 <record_sdram_dict+0xe0>
    2e90:	e3a00000 	mov	r0, #0
    2e94:	eb000372 	bl	3c64 <recording_record>
    2e98:	e51b303c 	ldr	r3, [fp, #-60]	; 0xffffffc4
    2e9c:	e3a0200a 	mov	r2, #10
    2ea0:	e593000c 	ldr	r0, [r3, #12]
    2ea4:	e24b1030 	sub	r1, fp, #48	; 0x30
    2ea8:	e51bd040 	ldr	sp, [fp, #-64]	; 0xffffffc0
    2eac:	eb000ca1 	bl	6138 <itoa>
    2eb0:	e3a0200a 	mov	r2, #10
    2eb4:	e24b1030 	sub	r1, fp, #48	; 0x30
    2eb8:	e3a00000 	mov	r0, #0
    2ebc:	eb000368 	bl	3c64 <recording_record>
    2ec0:	e59f3048 	ldr	r3, [pc, #72]	; 2f10 <record_sdram_dict+0x180>
    2ec4:	e51b2038 	ldr	r2, [fp, #-56]	; 0xffffffc8
    2ec8:	e5933004 	ldr	r3, [r3, #4]
    2ecc:	e2822001 	add	r2, r2, #1
    2ed0:	e1530002 	cmp	r3, r2
    2ed4:	e50b2038 	str	r2, [fp, #-56]	; 0xffffffc8
    2ed8:	e7957007 	ldr	r7, [r5, r7]
    2edc:	8affffbb 	bhi	2dd0 <record_sdram_dict+0x40>
    2ee0:	e24bd020 	sub	sp, fp, #32
    2ee4:	e8bd8ff0 	pop	{r4, r5, r6, r7, r8, r9, sl, fp, pc}
    2ee8:	e59f3024 	ldr	r3, [pc, #36]	; 2f14 <record_sdram_dict+0x184>
    2eec:	e50bd040 	str	sp, [fp, #-64]	; 0xffffffc0
    2ef0:	e593200c 	ldr	r2, [r3, #12]
    2ef4:	e2823007 	add	r3, r2, #7
    2ef8:	e3c33007 	bic	r3, r3, #7
    2efc:	e04dd003 	sub	sp, sp, r3
    2f00:	e1a0100d 	mov	r1, sp
    2f04:	e1a0e122 	lsr	lr, r2, #2
    2f08:	e1a03004 	mov	r3, r4
    2f0c:	eaffffd4 	b	2e64 <record_sdram_dict+0xd4>
    2f10:	00400014 	.word	0x00400014
    2f14:	00400594 	.word	0x00400594

00002f18 <record_string_entry>:
    2f18:	e59f309c 	ldr	r3, [pc, #156]	; 2fbc <record_string_entry+0xa4>
    2f1c:	e92d48f0 	push	{r4, r5, r6, r7, fp, lr}
    2f20:	e593200c 	ldr	r2, [r3, #12]
    2f24:	e28db014 	add	fp, sp, #20
    2f28:	e2823007 	add	r3, r2, #7
    2f2c:	e3c33007 	bic	r3, r3, #7
    2f30:	e251e000 	subs	lr, r1, #0
    2f34:	e04dd003 	sub	sp, sp, r3
    2f38:	e1a0100d 	mov	r1, sp
    2f3c:	e1a04122 	lsr	r4, r2, #2
    2f40:	0a00000c 	beq	2f78 <record_string_entry+0x60>
    2f44:	e080710e 	add	r7, r0, lr, lsl #2
    2f48:	e1a0c00d 	mov	ip, sp
    2f4c:	e4903004 	ldr	r3, [r0], #4
    2f50:	e5cc3003 	strb	r3, [ip, #3]
    2f54:	e1a06c23 	lsr	r6, r3, #24
    2f58:	e1a05823 	lsr	r5, r3, #16
    2f5c:	e1570000 	cmp	r7, r0
    2f60:	e1a03423 	lsr	r3, r3, #8
    2f64:	e5cc6000 	strb	r6, [ip]
    2f68:	e5cc5001 	strb	r5, [ip, #1]
    2f6c:	e5cc3002 	strb	r3, [ip, #2]
    2f70:	e08cc004 	add	ip, ip, r4
    2f74:	1afffff4 	bne	2f4c <record_string_entry+0x34>
    2f78:	e154000e 	cmp	r4, lr
    2f7c:	e1a0c00e 	mov	ip, lr
    2f80:	9a000009 	bls	2fac <record_string_entry+0x94>
    2f84:	e023149e 	mla	r3, lr, r4, r1
    2f88:	e3a00020 	mov	r0, #32
    2f8c:	e28cc001 	add	ip, ip, #1
    2f90:	e154000c 	cmp	r4, ip
    2f94:	e5c30000 	strb	r0, [r3]
    2f98:	e5c30001 	strb	r0, [r3, #1]
    2f9c:	e5c30002 	strb	r0, [r3, #2]
    2fa0:	e5c30003 	strb	r0, [r3, #3]
    2fa4:	e0833004 	add	r3, r3, r4
    2fa8:	1afffff7 	bne	2f8c <record_string_entry+0x74>
    2fac:	e3a00000 	mov	r0, #0
    2fb0:	eb00032b 	bl	3c64 <recording_record>
    2fb4:	e24bd014 	sub	sp, fp, #20
    2fb8:	e8bd88f0 	pop	{r4, r5, r6, r7, fp, pc}
    2fbc:	00400594 	.word	0x00400594

00002fc0 <record_int_entry>:
    2fc0:	e52de004 	push	{lr}		; (str lr, [sp, #-4]!)
    2fc4:	e24dd014 	sub	sp, sp, #20
    2fc8:	e28d1004 	add	r1, sp, #4
    2fcc:	e3a0200a 	mov	r2, #10
    2fd0:	eb000c58 	bl	6138 <itoa>
    2fd4:	e28d1004 	add	r1, sp, #4
    2fd8:	e3a0200a 	mov	r2, #10
    2fdc:	e3a00000 	mov	r0, #0
    2fe0:	eb00031f 	bl	3c64 <recording_record>
    2fe4:	e28dd014 	add	sp, sp, #20
    2fe8:	e49df004 	pop	{pc}		; (ldr pc, [sp], #4)

00002fec <c_main>:
    2fec:	e92d41f0 	push	{r4, r5, r6, r7, r8, lr}
    2ff0:	e59f320c 	ldr	r3, [pc, #524]	; 3204 <c_main+0x218>
    2ff4:	e24dd018 	sub	sp, sp, #24
    2ff8:	e59f2208 	ldr	r2, [pc, #520]	; 3208 <c_main+0x21c>
    2ffc:	e59f1208 	ldr	r1, [pc, #520]	; 320c <c_main+0x220>
    3000:	e3a00002 	mov	r0, #2
    3004:	fa000821 	blx	5090 <io_printf>
    3008:	eb000094 	bl	3260 <data_specification_get_data_address>
    300c:	e1a07000 	mov	r7, r0
    3010:	eb0000a3 	bl	32a4 <data_specification_read_header>
    3014:	e3500000 	cmp	r0, #0
    3018:	0a00006d 	beq	31d4 <c_main+0x1e8>
    301c:	e1a01007 	mov	r1, r7
    3020:	e3a00000 	mov	r0, #0
    3024:	eb0000c3 	bl	3338 <data_specification_get_region>
    3028:	e59f31e0 	ldr	r3, [pc, #480]	; 3210 <c_main+0x224>
    302c:	e3a04000 	mov	r4, #0
    3030:	e3e02000 	mvn	r2, #0
    3034:	e58d3000 	str	r3, [sp]
    3038:	e98d0014 	stmib	sp, {r2, r4}
    303c:	e2433004 	sub	r3, r3, #4
    3040:	e28d2014 	add	r2, sp, #20
    3044:	e59f11c8 	ldr	r1, [pc, #456]	; 3214 <c_main+0x228>
    3048:	eb0001c0 	bl	3750 <simulation_initialise>
    304c:	e1500004 	cmp	r0, r4
    3050:	1a00002e 	bne	3110 <c_main+0x124>
    3054:	e3a0000d 	mov	r0, #13
    3058:	ebfff433 	bl	12c <rt_error>
    305c:	e59f51b4 	ldr	r5, [pc, #436]	; 3218 <c_main+0x22c>
    3060:	eb00007e 	bl	3260 <data_specification_get_data_address>
    3064:	e1a01000 	mov	r1, r0
    3068:	e1a04000 	mov	r4, r0
    306c:	e3a00002 	mov	r0, #2
    3070:	eb0000b0 	bl	3338 <data_specification_get_region>
    3074:	e59f11a0 	ldr	r1, [pc, #416]	; 321c <c_main+0x230>
    3078:	eb000399 	bl	3ee4 <recording_initialize>
    307c:	e1a01004 	mov	r1, r4
    3080:	e3a00006 	mov	r0, #6
    3084:	eb0000ab 	bl	3338 <data_specification_get_region>
    3088:	e59f118c 	ldr	r1, [pc, #396]	; 321c <c_main+0x230>
    308c:	eb000394 	bl	3ee4 <recording_initialize>
    3090:	e3500000 	cmp	r0, #0
    3094:	1a000001 	bne	30a0 <c_main+0xb4>
    3098:	e3a0000d 	mov	r0, #13
    309c:	ebfff422 	bl	12c <rt_error>
    30a0:	e59d3014 	ldr	r3, [sp, #20]
    30a4:	e58d3000 	str	r3, [sp]
    30a8:	e59f2158 	ldr	r2, [pc, #344]	; 3208 <c_main+0x21c>
    30ac:	e59f316c 	ldr	r3, [pc, #364]	; 3220 <c_main+0x234>
    30b0:	e59f116c 	ldr	r1, [pc, #364]	; 3224 <c_main+0x238>
    30b4:	e3a00002 	mov	r0, #2
    30b8:	fa0007f4 	blx	5090 <io_printf>
    30bc:	e59d0014 	ldr	r0, [sp, #20]
    30c0:	e3a01000 	mov	r1, #0
    30c4:	fa0009ae 	blx	5784 <spin1_set_timer_tick_and_phase>
    30c8:	e3a02003 	mov	r2, #3
    30cc:	e59f1154 	ldr	r1, [pc, #340]	; 3228 <c_main+0x23c>
    30d0:	e3a00005 	mov	r0, #5
    30d4:	fa00097e 	blx	56d4 <spin1_callback_on>
    30d8:	e3a02001 	mov	r2, #1
    30dc:	e59f1148 	ldr	r1, [pc, #328]	; 322c <c_main+0x240>
    30e0:	e3a00002 	mov	r0, #2
    30e4:	fa00097a 	blx	56d4 <spin1_callback_on>
    30e8:	e59f2118 	ldr	r2, [pc, #280]	; 3208 <c_main+0x21c>
    30ec:	e59f113c 	ldr	r1, [pc, #316]	; 3230 <c_main+0x244>
    30f0:	e3a00002 	mov	r0, #2
    30f4:	e59f3138 	ldr	r3, [pc, #312]	; 3234 <c_main+0x248>
    30f8:	fa0007e4 	blx	5090 <io_printf>
    30fc:	e3e03000 	mvn	r3, #0
    3100:	e5853000 	str	r3, [r5]
    3104:	eb0000c7 	bl	3428 <simulation_run>
    3108:	e28dd018 	add	sp, sp, #24
    310c:	e8bd81f0 	pop	{r4, r5, r6, r7, r8, pc}
    3110:	e1a01007 	mov	r1, r7
    3114:	e3a00003 	mov	r0, #3
    3118:	eb000086 	bl	3338 <data_specification_get_region>
    311c:	e5906000 	ldr	r6, [r0]
    3120:	e1a05000 	mov	r5, r0
    3124:	e1560004 	cmp	r6, r4
    3128:	0a00002f 	beq	31ec <c_main+0x200>
    312c:	e1a00106 	lsl	r0, r6, #2
    3130:	fa000a9a 	blx	5ba0 <spin1_malloc>
    3134:	e59f80fc 	ldr	r8, [pc, #252]	; 3238 <c_main+0x24c>
    3138:	e58d6000 	str	r6, [sp]
    313c:	e59f30f8 	ldr	r3, [pc, #248]	; 323c <c_main+0x250>
    3140:	e59f20c0 	ldr	r2, [pc, #192]	; 3208 <c_main+0x21c>
    3144:	e59f10f4 	ldr	r1, [pc, #244]	; 3240 <c_main+0x254>
    3148:	e5880000 	str	r0, [r8]
    314c:	e3a00002 	mov	r0, #2
    3150:	fa0007ce 	blx	5090 <io_printf>
    3154:	e5983000 	ldr	r3, [r8]
    3158:	e5952004 	ldr	r2, [r5, #4]
    315c:	e7832104 	str	r2, [r3, r4, lsl #2]
    3160:	e59f10dc 	ldr	r1, [pc, #220]	; 3244 <c_main+0x258>
    3164:	e58d2000 	str	r2, [sp]
    3168:	e59f30d8 	ldr	r3, [pc, #216]	; 3248 <c_main+0x25c>
    316c:	e2844001 	add	r4, r4, #1
    3170:	e59f2090 	ldr	r2, [pc, #144]	; 3208 <c_main+0x21c>
    3174:	e3a00002 	mov	r0, #2
    3178:	fa0007c4 	blx	5090 <io_printf>
    317c:	e1560004 	cmp	r6, r4
    3180:	e2855008 	add	r5, r5, #8
    3184:	1afffff2 	bne	3154 <c_main+0x168>
    3188:	e1a01007 	mov	r1, r7
    318c:	e3a00004 	mov	r0, #4
    3190:	eb000068 	bl	3338 <data_specification_get_region>
    3194:	e59f507c 	ldr	r5, [pc, #124]	; 3218 <c_main+0x22c>
    3198:	e3a03e56 	mov	r3, #1376	; 0x560
    319c:	e59f2064 	ldr	r2, [pc, #100]	; 3208 <c_main+0x21c>
    31a0:	e59f10a4 	ldr	r1, [pc, #164]	; 324c <c_main+0x260>
    31a4:	e590c000 	ldr	ip, [r0]
    31a8:	e58dc000 	str	ip, [sp]
    31ac:	e3a00002 	mov	r0, #2
    31b0:	e585c01c 	str	ip, [r5, #28]
    31b4:	fa0007b5 	blx	5090 <io_printf>
    31b8:	e1a01007 	mov	r1, r7
    31bc:	e3a00005 	mov	r0, #5
    31c0:	eb00005c 	bl	3338 <data_specification_get_region>
    31c4:	e890000c 	ldm	r0, {r2, r3}
    31c8:	e585200c 	str	r2, [r5, #12]
    31cc:	e5853010 	str	r3, [r5, #16]
    31d0:	eaffffa2 	b	3060 <c_main+0x74>
    31d4:	e59f3074 	ldr	r3, [pc, #116]	; 3250 <c_main+0x264>
    31d8:	e59f2028 	ldr	r2, [pc, #40]	; 3208 <c_main+0x21c>
    31dc:	e59f1070 	ldr	r1, [pc, #112]	; 3254 <c_main+0x268>
    31e0:	e3a00002 	mov	r0, #2
    31e4:	fa0007a9 	blx	5090 <io_printf>
    31e8:	eaffff99 	b	3054 <c_main+0x68>
    31ec:	e59f3064 	ldr	r3, [pc, #100]	; 3258 <c_main+0x26c>
    31f0:	e59f2010 	ldr	r2, [pc, #16]	; 3208 <c_main+0x21c>
    31f4:	e59f1060 	ldr	r1, [pc, #96]	; 325c <c_main+0x270>
    31f8:	e3a00002 	mov	r0, #2
    31fc:	fa0007a3 	blx	5090 <io_printf>
    3200:	eaffff93 	b	3054 <c_main+0x68>
    3204:	0000056d 	.word	0x0000056d
    3208:	00006450 	.word	0x00006450
    320c:	00006790 	.word	0x00006790
    3210:	0040002c 	.word	0x0040002c
    3214:	c4312c2a 	.word	0xc4312c2a
    3218:	00400014 	.word	0x00400014
    321c:	00400000 	.word	0x00400000
    3220:	0000057e 	.word	0x0000057e
    3224:	000068b8 	.word	0x000068b8
    3228:	000023a8 	.word	0x000023a8
    322c:	000028a4 	.word	0x000028a4
    3230:	000068fc 	.word	0x000068fc
    3234:	00000586 	.word	0x00000586
    3238:	00400550 	.word	0x00400550
    323c:	00000551 	.word	0x00000551
    3240:	000067f8 	.word	0x000067f8
    3244:	0000681c 	.word	0x0000681c
    3248:	00000554 	.word	0x00000554
    324c:	00006888 	.word	0x00006888
    3250:	0000053d 	.word	0x0000053d
    3254:	000067bc 	.word	0x000067bc
    3258:	00000558 	.word	0x00000558
    325c:	00006840 	.word	0x00006840

00003260 <data_specification_get_data_address>:
    3260:	e92d4013 	push	{r0, r1, r4, lr}
    3264:	fa000a47 	blx	5b88 <spin1_get_core_id>
    3268:	e3a03026 	mov	r3, #38	; 0x26
    326c:	e59f2028 	ldr	r2, [pc, #40]	; 329c <data_specification_get_data_address+0x3c>
    3270:	e59f1028 	ldr	r1, [pc, #40]	; 32a0 <data_specification_get_data_address+0x40>
    3274:	e1a00380 	lsl	r0, r0, #7
    3278:	e28004e5 	add	r0, r0, #-452984832	; 0xe5000000
    327c:	e2800a07 	add	r0, r0, #28672	; 0x7000
    3280:	e5904070 	ldr	r4, [r0, #112]	; 0x70
    3284:	e58d4000 	str	r4, [sp]
    3288:	e3a00002 	mov	r0, #2
    328c:	fa00077f 	blx	5090 <io_printf>
    3290:	e1a00004 	mov	r0, r4
    3294:	e28dd008 	add	sp, sp, #8
    3298:	e8bd8010 	pop	{r4, pc}
    329c:	0000692c 	.word	0x0000692c
    32a0:	00006945 	.word	0x00006945

000032a4 <data_specification_read_header>:
    32a4:	e92d401f 	push	{r0, r1, r2, r3, r4, lr}
    32a8:	e5903000 	ldr	r3, [r0]
    32ac:	e59f2070 	ldr	r2, [pc, #112]	; 3324 <data_specification_read_header+0x80>
    32b0:	e1530002 	cmp	r3, r2
    32b4:	158d3000 	strne	r3, [sp]
    32b8:	159f2068 	ldrne	r2, [pc, #104]	; 3328 <data_specification_read_header+0x84>
    32bc:	13a03037 	movne	r3, #55	; 0x37
    32c0:	159f1064 	ldrne	r1, [pc, #100]	; 332c <data_specification_read_header+0x88>
    32c4:	1a000006 	bne	32e4 <data_specification_read_header+0x40>
    32c8:	e5902004 	ldr	r2, [r0, #4]
    32cc:	e3520801 	cmp	r2, #65536	; 0x10000
    32d0:	0a000007 	beq	32f4 <data_specification_read_header+0x50>
    32d4:	e58d2000 	str	r2, [sp]
    32d8:	e59f1050 	ldr	r1, [pc, #80]	; 3330 <data_specification_read_header+0x8c>
    32dc:	e59f2044 	ldr	r2, [pc, #68]	; 3328 <data_specification_read_header+0x84>
    32e0:	e3a0303c 	mov	r3, #60	; 0x3c
    32e4:	e3a00002 	mov	r0, #2
    32e8:	fa000768 	blx	5090 <io_printf>
    32ec:	e3a00000 	mov	r0, #0
    32f0:	ea000009 	b	331c <data_specification_read_header+0x78>
    32f4:	e3a02000 	mov	r2, #0
    32f8:	e3a04001 	mov	r4, #1
    32fc:	e58d2008 	str	r2, [sp, #8]
    3300:	e88d0018 	stm	sp, {r3, r4}
    3304:	e3a00002 	mov	r0, #2
    3308:	e3a03043 	mov	r3, #67	; 0x43
    330c:	e59f2014 	ldr	r2, [pc, #20]	; 3328 <data_specification_read_header+0x84>
    3310:	e59f101c 	ldr	r1, [pc, #28]	; 3334 <data_specification_read_header+0x90>
    3314:	fa00075d 	blx	5090 <io_printf>
    3318:	e1a00004 	mov	r0, r4
    331c:	e28dd010 	add	sp, sp, #16
    3320:	e8bd8010 	pop	{r4, pc}
    3324:	ad130ad6 	.word	0xad130ad6
    3328:	0000692c 	.word	0x0000692c
    332c:	0000697d 	.word	0x0000697d
    3330:	000069b2 	.word	0x000069b2
    3334:	000069e9 	.word	0x000069e9

00003338 <data_specification_get_region>:
    3338:	e2800002 	add	r0, r0, #2
    333c:	e7910100 	ldr	r0, [r1, r0, lsl #2]
    3340:	e12fff1e 	bx	lr

00003344 <_execute_provenance_storage>:
    3344:	e92d4070 	push	{r4, r5, r6, lr}
    3348:	e59f4084 	ldr	r4, [pc, #132]	; 33d4 <_execute_provenance_storage+0x90>
    334c:	e5943000 	ldr	r3, [r4]
    3350:	e3530000 	cmp	r3, #0
    3354:	08bd8070 	popeq	{r4, r5, r6, pc}
    3358:	e3a0303d 	mov	r3, #61	; 0x3d
    335c:	e59f2074 	ldr	r2, [pc, #116]	; 33d8 <_execute_provenance_storage+0x94>
    3360:	e3a00002 	mov	r0, #2
    3364:	e59f1070 	ldr	r1, [pc, #112]	; 33dc <_execute_provenance_storage+0x98>
    3368:	fa000748 	blx	5090 <io_printf>
    336c:	e59f306c 	ldr	r3, [pc, #108]	; 33e0 <_execute_provenance_storage+0x9c>
    3370:	e5940000 	ldr	r0, [r4]
    3374:	e5932024 	ldr	r2, [r3, #36]	; 0x24
    3378:	e5802000 	str	r2, [r0]
    337c:	e5932020 	ldr	r2, [r3, #32]
    3380:	e5802004 	str	r2, [r0, #4]
    3384:	e59f5058 	ldr	r5, [pc, #88]	; 33e4 <_execute_provenance_storage+0xa0>
    3388:	e593201c 	ldr	r2, [r3, #28]
    338c:	e5802008 	str	r2, [r0, #8]
    3390:	e5932044 	ldr	r2, [r3, #68]	; 0x44
    3394:	e5933040 	ldr	r3, [r3, #64]	; 0x40
    3398:	e5803010 	str	r3, [r0, #16]
    339c:	e5953000 	ldr	r3, [r5]
    33a0:	e580200c 	str	r2, [r0, #12]
    33a4:	e3530000 	cmp	r3, #0
    33a8:	e2804014 	add	r4, r0, #20
    33ac:	08bd8070 	popeq	{r4, r5, r6, pc}
    33b0:	e3a03040 	mov	r3, #64	; 0x40
    33b4:	e3a00002 	mov	r0, #2
    33b8:	e59f2018 	ldr	r2, [pc, #24]	; 33d8 <_execute_provenance_storage+0x94>
    33bc:	e59f1024 	ldr	r1, [pc, #36]	; 33e8 <_execute_provenance_storage+0xa4>
    33c0:	fa000732 	blx	5090 <io_printf>
    33c4:	e5953000 	ldr	r3, [r5]
    33c8:	e1a00004 	mov	r0, r4
    33cc:	e8bd4070 	pop	{r4, r5, r6, lr}
    33d0:	e12fff13 	bx	r3
    33d4:	00400048 	.word	0x00400048
    33d8:	00006a1c 	.word	0x00006a1c
    33dc:	00006a2d 	.word	0x00006a2d
    33e0:	00400694 	.word	0x00400694
    33e4:	0040003c 	.word	0x0040003c
    33e8:	00006a66 	.word	0x00006a66

000033ec <_simulation_sdp_callback_handler>:
    33ec:	e59f3010 	ldr	r3, [pc, #16]	; 3404 <_simulation_sdp_callback_handler+0x18>
    33f0:	e7933101 	ldr	r3, [r3, r1, lsl #2]
    33f4:	e3530000 	cmp	r3, #0
    33f8:	0a000000 	beq	3400 <_simulation_sdp_callback_handler+0x14>
    33fc:	e12fff13 	bx	r3
    3400:	ea000c0a 	b	6430 <__sark_msg_free_from_arm>
    3404:	00400090 	.word	0x00400090

00003408 <_simulation_dma_transfer_done_callback>:
    3408:	e351000f 	cmp	r1, #15
    340c:	812fff1e 	bxhi	lr
    3410:	e59f200c 	ldr	r2, [pc, #12]	; 3424 <_simulation_dma_transfer_done_callback+0x1c>
    3414:	e7923101 	ldr	r3, [r2, r1, lsl #2]
    3418:	e3530000 	cmp	r3, #0
    341c:	012fff1e 	bxeq	lr
    3420:	e12fff13 	bx	r3
    3424:	00400050 	.word	0x00400050

00003428 <simulation_run>:
    3428:	ea000c06 	b	6448 <__spin1_start_paused_from_arm>

0000342c <simulation_handle_pause_resume>:
    342c:	e59f3010 	ldr	r3, [pc, #16]	; 3444 <simulation_handle_pause_resume+0x18>
    3430:	e92d4010 	push	{r4, lr}
    3434:	e5830000 	str	r0, [r3]
    3438:	ebffffc1 	bl	3344 <_execute_provenance_storage>
    343c:	e8bd4010 	pop	{r4, lr}
    3440:	ea000bf6 	b	6420 <__spin1_pause_from_arm>
    3444:	00400044 	.word	0x00400044

00003448 <_send_ok_response>:
    3448:	e3a02080 	mov	r2, #128	; 0x80
    344c:	e5d0100a 	ldrb	r1, [r0, #10]
    3450:	e1c021b0 	strh	r2, [r0, #16]
    3454:	e3a0200c 	mov	r2, #12
    3458:	e5d0c00b 	ldrb	ip, [r0, #11]
    345c:	e1c020b4 	strh	r2, [r0, #4]
    3460:	e5c0100b 	strb	r1, [r0, #11]
    3464:	e1d020bc 	ldrh	r2, [r0, #12]
    3468:	e1d010be 	ldrh	r1, [r0, #14]
    346c:	e1c010bc 	strh	r1, [r0, #12]
    3470:	e5c0c00a 	strb	ip, [r0, #10]
    3474:	e1c020be 	strh	r2, [r0, #14]
    3478:	e3a0100a 	mov	r1, #10
    347c:	ea000bed 	b	6438 <__spin1_send_sdp_msg_from_arm>

00003480 <_simulation_control_scp_callback>:
    3480:	e1d031b0 	ldrh	r3, [r0, #16]
    3484:	e92d4037 	push	{r0, r1, r2, r4, r5, lr}
    3488:	e2432006 	sub	r2, r3, #6
    348c:	e1a04000 	mov	r4, r0
    3490:	e3520003 	cmp	r2, #3
    3494:	979ff102 	ldrls	pc, [pc, r2, lsl #2]
    3498:	ea000065 	b	3634 <_simulation_control_scp_callback+0x1b4>
    349c:	000034ac 	.word	0x000034ac
    34a0:	00003510 	.word	0x00003510
    34a4:	000035bc 	.word	0x000035bc
    34a8:	00003618 	.word	0x00003618
    34ac:	e3a0307d 	mov	r3, #125	; 0x7d
    34b0:	e59f21a4 	ldr	r2, [pc, #420]	; 365c <_simulation_control_scp_callback+0x1dc>
    34b4:	e59f11a4 	ldr	r1, [pc, #420]	; 3660 <_simulation_control_scp_callback+0x1e0>
    34b8:	e3a00002 	mov	r0, #2
    34bc:	fa0006f3 	blx	5090 <io_printf>
    34c0:	e1a00004 	mov	r0, r4
    34c4:	e59f4198 	ldr	r4, [pc, #408]	; 3664 <_simulation_control_scp_callback+0x1e4>
    34c8:	fa00079d 	blx	5344 <spin1_msg_free>
    34cc:	e5943000 	ldr	r3, [r4]
    34d0:	e3530000 	cmp	r3, #0
    34d4:	0a000006 	beq	34f4 <_simulation_control_scp_callback+0x74>
    34d8:	e3a03084 	mov	r3, #132	; 0x84
    34dc:	e59f2178 	ldr	r2, [pc, #376]	; 365c <_simulation_control_scp_callback+0x1dc>
    34e0:	e59f1180 	ldr	r1, [pc, #384]	; 3668 <_simulation_control_scp_callback+0x1e8>
    34e4:	e3a00002 	mov	r0, #2
    34e8:	fa0006e8 	blx	5090 <io_printf>
    34ec:	e5943000 	ldr	r3, [r4]
    34f0:	e12fff33 	blx	r3
    34f4:	e3a00002 	mov	r0, #2
    34f8:	e3a03087 	mov	r3, #135	; 0x87
    34fc:	e59f2158 	ldr	r2, [pc, #344]	; 365c <_simulation_control_scp_callback+0x1dc>
    3500:	e59f1164 	ldr	r1, [pc, #356]	; 366c <_simulation_control_scp_callback+0x1ec>
    3504:	fa0006e1 	blx	5090 <io_printf>
    3508:	e3a00000 	mov	r0, #0
    350c:	ea00003e 	b	360c <_simulation_control_scp_callback+0x18c>
    3510:	e5903014 	ldr	r3, [r0, #20]
    3514:	e58d3000 	str	r3, [sp]
    3518:	e59f213c 	ldr	r2, [pc, #316]	; 365c <_simulation_control_scp_callback+0x1dc>
    351c:	e3a0308c 	mov	r3, #140	; 0x8c
    3520:	e59f1148 	ldr	r1, [pc, #328]	; 3670 <_simulation_control_scp_callback+0x1f0>
    3524:	e3a00002 	mov	r0, #2
    3528:	fa0006d8 	blx	5090 <io_printf>
    352c:	e5943018 	ldr	r3, [r4, #24]
    3530:	e58d3000 	str	r3, [sp]
    3534:	e59f2120 	ldr	r2, [pc, #288]	; 365c <_simulation_control_scp_callback+0x1dc>
    3538:	e3a0308e 	mov	r3, #142	; 0x8e
    353c:	e59f1130 	ldr	r1, [pc, #304]	; 3674 <_simulation_control_scp_callback+0x1f4>
    3540:	e3a00002 	mov	r0, #2
    3544:	fa0006d1 	blx	5090 <io_printf>
    3548:	e59f3128 	ldr	r3, [pc, #296]	; 3678 <_simulation_control_scp_callback+0x1f8>
    354c:	e5942014 	ldr	r2, [r4, #20]
    3550:	e5933000 	ldr	r3, [r3]
    3554:	e59f5120 	ldr	r5, [pc, #288]	; 367c <_simulation_control_scp_callback+0x1fc>
    3558:	e5832000 	str	r2, [r3]
    355c:	e59f311c 	ldr	r3, [pc, #284]	; 3680 <_simulation_control_scp_callback+0x200>
    3560:	e5942018 	ldr	r2, [r4, #24]
    3564:	e5933000 	ldr	r3, [r3]
    3568:	e5832000 	str	r2, [r3]
    356c:	e5953000 	ldr	r3, [r5]
    3570:	e3530000 	cmp	r3, #0
    3574:	0a000008 	beq	359c <_simulation_control_scp_callback+0x11c>
    3578:	e3a03095 	mov	r3, #149	; 0x95
    357c:	e59f20d8 	ldr	r2, [pc, #216]	; 365c <_simulation_control_scp_callback+0x1dc>
    3580:	e59f10fc 	ldr	r1, [pc, #252]	; 3684 <_simulation_control_scp_callback+0x204>
    3584:	e3a00002 	mov	r0, #2
    3588:	fa0006c0 	blx	5090 <io_printf>
    358c:	e5953000 	ldr	r3, [r5]
    3590:	e12fff33 	blx	r3
    3594:	e3a03000 	mov	r3, #0
    3598:	e5853000 	str	r3, [r5]
    359c:	e3a03099 	mov	r3, #153	; 0x99
    35a0:	e59f20b4 	ldr	r2, [pc, #180]	; 365c <_simulation_control_scp_callback+0x1dc>
    35a4:	e59f10dc 	ldr	r1, [pc, #220]	; 3688 <_simulation_control_scp_callback+0x208>
    35a8:	e3a00002 	mov	r0, #2
    35ac:	fa0006b7 	blx	5090 <io_printf>
    35b0:	e3a00001 	mov	r0, #1
    35b4:	fa0007f6 	blx	5594 <spin1_resume>
    35b8:	ea000017 	b	361c <_simulation_control_scp_callback+0x19c>
    35bc:	e59f50a0 	ldr	r5, [pc, #160]	; 3664 <_simulation_control_scp_callback+0x1e4>
    35c0:	e3a030a6 	mov	r3, #166	; 0xa6
    35c4:	e59f2090 	ldr	r2, [pc, #144]	; 365c <_simulation_control_scp_callback+0x1dc>
    35c8:	e59f10bc 	ldr	r1, [pc, #188]	; 368c <_simulation_control_scp_callback+0x20c>
    35cc:	e3a00002 	mov	r0, #2
    35d0:	fa0006ae 	blx	5090 <io_printf>
    35d4:	ebffff5a 	bl	3344 <_execute_provenance_storage>
    35d8:	e5953000 	ldr	r3, [r5]
    35dc:	e3530000 	cmp	r3, #0
    35e0:	0a000006 	beq	3600 <_simulation_control_scp_callback+0x180>
    35e4:	e3a030ad 	mov	r3, #173	; 0xad
    35e8:	e59f206c 	ldr	r2, [pc, #108]	; 365c <_simulation_control_scp_callback+0x1dc>
    35ec:	e59f1074 	ldr	r1, [pc, #116]	; 3668 <_simulation_control_scp_callback+0x1e8>
    35f0:	e3a00002 	mov	r0, #2
    35f4:	fa0006a5 	blx	5090 <io_printf>
    35f8:	e5953000 	ldr	r3, [r5]
    35fc:	e12fff33 	blx	r3
    3600:	e1a00004 	mov	r0, r4
    3604:	fa00074e 	blx	5344 <spin1_msg_free>
    3608:	e3a00001 	mov	r0, #1
    360c:	e28dd00c 	add	sp, sp, #12
    3610:	e8bd4030 	pop	{r4, r5, lr}
    3614:	ea000b89 	b	6440 <__spin1_exit_from_arm>
    3618:	fa00061e 	blx	4e98 <sark_io_buf_reset>
    361c:	e594301c 	ldr	r3, [r4, #28]
    3620:	e3530001 	cmp	r3, #1
    3624:	1a000008 	bne	364c <_simulation_control_scp_callback+0x1cc>
    3628:	e1a00004 	mov	r0, r4
    362c:	ebffff85 	bl	3448 <_send_ok_response>
    3630:	ea000005 	b	364c <_simulation_control_scp_callback+0x1cc>
    3634:	e58d3000 	str	r3, [sp]
    3638:	e59f201c 	ldr	r2, [pc, #28]	; 365c <_simulation_control_scp_callback+0x1dc>
    363c:	e3a030c5 	mov	r3, #197	; 0xc5
    3640:	e59f1048 	ldr	r1, [pc, #72]	; 3690 <_simulation_control_scp_callback+0x210>
    3644:	e3a00002 	mov	r0, #2
    3648:	fa000690 	blx	5090 <io_printf>
    364c:	e1a00004 	mov	r0, r4
    3650:	e28dd00c 	add	sp, sp, #12
    3654:	e8bd4030 	pop	{r4, r5, lr}
    3658:	ea000b72 	b	6428 <__spin1_msg_free_from_arm>
    365c:	00006a1c 	.word	0x00006a1c
    3660:	00006a9e 	.word	0x00006a9e
    3664:	00400040 	.word	0x00400040
    3668:	00006adb 	.word	0x00006adb
    366c:	00006b0a 	.word	0x00006b0a
    3670:	00006b27 	.word	0x00006b27
    3674:	00006b64 	.word	0x00006b64
    3678:	00400038 	.word	0x00400038
    367c:	00400044 	.word	0x00400044
    3680:	0040004c 	.word	0x0040004c
    3684:	00006baf 	.word	0x00006baf
    3688:	00006be0 	.word	0x00006be0
    368c:	00006bfe 	.word	0x00006bfe
    3690:	00006c2f 	.word	0x00006c2f

00003694 <simulation_sdp_callback_on>:
    3694:	e59f3038 	ldr	r3, [pc, #56]	; 36d4 <simulation_sdp_callback_on+0x40>
    3698:	e92d4007 	push	{r0, r1, r2, lr}
    369c:	e7932100 	ldr	r2, [r3, r0, lsl #2]
    36a0:	e3520000 	cmp	r2, #0
    36a4:	1a000001 	bne	36b0 <simulation_sdp_callback_on+0x1c>
    36a8:	e7831100 	str	r1, [r3, r0, lsl #2]
    36ac:	ea000006 	b	36cc <simulation_sdp_callback_on+0x38>
    36b0:	e58d0000 	str	r0, [sp]
    36b4:	e3a030de 	mov	r3, #222	; 0xde
    36b8:	e3a00002 	mov	r0, #2
    36bc:	e59f2014 	ldr	r2, [pc, #20]	; 36d8 <simulation_sdp_callback_on+0x44>
    36c0:	e59f1014 	ldr	r1, [pc, #20]	; 36dc <simulation_sdp_callback_on+0x48>
    36c4:	fa000671 	blx	5090 <io_printf>
    36c8:	e3a00000 	mov	r0, #0
    36cc:	e28dd00c 	add	sp, sp, #12
    36d0:	e49df004 	pop	{pc}		; (ldr pc, [sp], #4)
    36d4:	00400090 	.word	0x00400090
    36d8:	00006a1c 	.word	0x00006a1c
    36dc:	00006c71 	.word	0x00006c71

000036e0 <simulation_dma_transfer_done_callback_on>:
    36e0:	e350000f 	cmp	r0, #15
    36e4:	e92d4007 	push	{r0, r1, r2, lr}
    36e8:	9a000005 	bls	3704 <simulation_dma_transfer_done_callback_on+0x24>
    36ec:	e3a0300f 	mov	r3, #15
    36f0:	e58d3000 	str	r3, [sp]
    36f4:	e59f2044 	ldr	r2, [pc, #68]	; 3740 <simulation_dma_transfer_done_callback_on+0x60>
    36f8:	e3a030f3 	mov	r3, #243	; 0xf3
    36fc:	e59f1040 	ldr	r1, [pc, #64]	; 3744 <simulation_dma_transfer_done_callback_on+0x64>
    3700:	ea000009 	b	372c <simulation_dma_transfer_done_callback_on+0x4c>
    3704:	e59f303c 	ldr	r3, [pc, #60]	; 3748 <simulation_dma_transfer_done_callback_on+0x68>
    3708:	e7932100 	ldr	r2, [r3, r0, lsl #2]
    370c:	e3520000 	cmp	r2, #0
    3710:	1a000001 	bne	371c <simulation_dma_transfer_done_callback_on+0x3c>
    3714:	e7831100 	str	r1, [r3, r0, lsl #2]
    3718:	ea000006 	b	3738 <simulation_dma_transfer_done_callback_on+0x58>
    371c:	e59f201c 	ldr	r2, [pc, #28]	; 3740 <simulation_dma_transfer_done_callback_on+0x60>
    3720:	e59f1024 	ldr	r1, [pc, #36]	; 374c <simulation_dma_transfer_done_callback_on+0x6c>
    3724:	e3a030fe 	mov	r3, #254	; 0xfe
    3728:	e58d0000 	str	r0, [sp]
    372c:	e3a00002 	mov	r0, #2
    3730:	fa000656 	blx	5090 <io_printf>
    3734:	e3a00000 	mov	r0, #0
    3738:	e28dd00c 	add	sp, sp, #12
    373c:	e49df004 	pop	{pc}		; (ldr pc, [sp], #4)
    3740:	00006a1c 	.word	0x00006a1c
    3744:	00006ccd 	.word	0x00006ccd
    3748:	00400050 	.word	0x00400050
    374c:	00006d2d 	.word	0x00006d2d

00003750 <simulation_initialise>:
    3750:	e92d401f 	push	{r0, r1, r2, r3, r4, lr}
    3754:	e1a04000 	mov	r4, r0
    3758:	e5900000 	ldr	r0, [r0]
    375c:	e1a0c002 	mov	ip, r2
    3760:	e1500001 	cmp	r0, r1
    3764:	e59d201c 	ldr	r2, [sp, #28]
    3768:	0a000006 	beq	3788 <simulation_initialise+0x38>
    376c:	e88d0013 	stm	sp, {r0, r1, r4}
    3770:	e59f3088 	ldr	r3, [pc, #136]	; 3800 <simulation_initialise+0xb0>
    3774:	e59f2088 	ldr	r2, [pc, #136]	; 3804 <simulation_initialise+0xb4>
    3778:	e59f1088 	ldr	r1, [pc, #136]	; 3808 <simulation_initialise+0xb8>
    377c:	e3a00002 	mov	r0, #2
    3780:	fa000642 	blx	5090 <io_printf>
    3784:	ea000007 	b	37a8 <simulation_initialise+0x58>
    3788:	e3720001 	cmn	r2, #1
    378c:	aa000007 	bge	37b0 <simulation_initialise+0x60>
    3790:	e58d2000 	str	r2, [sp]
    3794:	e59f3070 	ldr	r3, [pc, #112]	; 380c <simulation_initialise+0xbc>
    3798:	e59f2064 	ldr	r2, [pc, #100]	; 3804 <simulation_initialise+0xb4>
    379c:	e59f106c 	ldr	r1, [pc, #108]	; 3810 <simulation_initialise+0xc0>
    37a0:	e3a00002 	mov	r0, #2
    37a4:	fa000639 	blx	5090 <io_printf>
    37a8:	e3a00000 	mov	r0, #0
    37ac:	ea000011 	b	37f8 <simulation_initialise+0xa8>
    37b0:	e5941004 	ldr	r1, [r4, #4]
    37b4:	e58c1000 	str	r1, [ip]
    37b8:	e59f1054 	ldr	r1, [pc, #84]	; 3814 <simulation_initialise+0xc4>
    37bc:	e3a00003 	mov	r0, #3
    37c0:	e5813000 	str	r3, [r1]
    37c4:	e59f304c 	ldr	r3, [pc, #76]	; 3818 <simulation_initialise+0xc8>
    37c8:	e59d1018 	ldr	r1, [sp, #24]
    37cc:	e5831000 	str	r1, [r3]
    37d0:	e59f1044 	ldr	r1, [pc, #68]	; 381c <simulation_initialise+0xcc>
    37d4:	fa0007be 	blx	56d4 <spin1_callback_on>
    37d8:	e59f1040 	ldr	r1, [pc, #64]	; 3820 <simulation_initialise+0xd0>
    37dc:	e5940008 	ldr	r0, [r4, #8]
    37e0:	ebffffab 	bl	3694 <simulation_sdp_callback_on>
    37e4:	e3a00001 	mov	r0, #1
    37e8:	e59d2020 	ldr	r2, [sp, #32]
    37ec:	e59f1030 	ldr	r1, [pc, #48]	; 3824 <simulation_initialise+0xd4>
    37f0:	fa0007b7 	blx	56d4 <spin1_callback_on>
    37f4:	e3a00001 	mov	r0, #1
    37f8:	e28dd010 	add	sp, sp, #16
    37fc:	e8bd8010 	pop	{r4, pc}
    3800:	00000113 	.word	0x00000113
    3804:	00006a1c 	.word	0x00006a1c
    3808:	00006d91 	.word	0x00006d91
    380c:	0000011b 	.word	0x0000011b
    3810:	00006de1 	.word	0x00006de1
    3814:	00400038 	.word	0x00400038
    3818:	0040004c 	.word	0x0040004c
    381c:	000033ec 	.word	0x000033ec
    3820:	00003480 	.word	0x00003480
    3824:	00003408 	.word	0x00003408

00003828 <compute_available_space_in_channel>:
    3828:	e59f3054 	ldr	r3, [pc, #84]	; 3884 <compute_available_space_in_channel+0x5c>
    382c:	e0800080 	add	r0, r0, r0, lsl #1
    3830:	e5933000 	ldr	r3, [r3]
    3834:	e1a00180 	lsl	r0, r0, #3
    3838:	e0831000 	add	r1, r3, r0
    383c:	e591c00c 	ldr	ip, [r1, #12]
    3840:	e7933000 	ldr	r3, [r3, r0]
    3844:	e5910004 	ldr	r0, [r1, #4]
    3848:	e5912010 	ldr	r2, [r1, #16]
    384c:	e150000c 	cmp	r0, ip
    3850:	e5d11016 	ldrb	r1, [r1, #22]
    3854:	9a000003 	bls	3868 <compute_available_space_in_channel+0x40>
    3858:	e082200c 	add	r2, r2, ip
    385c:	e0600002 	rsb	r0, r0, r2
    3860:	e0630000 	rsb	r0, r3, r0
    3864:	e12fff1e 	bx	lr
    3868:	2a000001 	bcs	3874 <compute_available_space_in_channel+0x4c>
    386c:	e060000c 	rsb	r0, r0, ip
    3870:	e12fff1e 	bx	lr
    3874:	e3510001 	cmp	r1, #1
    3878:	10630002 	rsbne	r0, r3, r2
    387c:	03a00000 	moveq	r0, #0
    3880:	e12fff1e 	bx	lr
    3884:	004001fc 	.word	0x004001fc

00003888 <_create_buffer_message>:
    3888:	e3a0c00c 	mov	ip, #12
    388c:	e001019c 	mul	r1, ip, r1
    3890:	e52de004 	push	{lr}		; (str lr, [sp, #-4]!)
    3894:	e3a0e000 	mov	lr, #0
    3898:	e7c0e001 	strb	lr, [r0, r1]
    389c:	e080c001 	add	ip, r0, r1
    38a0:	e59f1028 	ldr	r1, [pc, #40]	; 38d0 <_create_buffer_message+0x48>
    38a4:	e5cc2002 	strb	r2, [ip, #2]
    38a8:	e5910000 	ldr	r0, [r1]
    38ac:	e3a01018 	mov	r1, #24
    38b0:	e0220291 	mla	r2, r1, r2, r0
    38b4:	e5cce001 	strb	lr, [ip, #1]
    38b8:	e5d22014 	ldrb	r2, [r2, #20]
    38bc:	e58c3004 	str	r3, [ip, #4]
    38c0:	e59d3004 	ldr	r3, [sp, #4]
    38c4:	e5cc2003 	strb	r2, [ip, #3]
    38c8:	e58c3008 	str	r3, [ip, #8]
    38cc:	e49df004 	pop	{pc}		; (ldr pc, [sp], #4)
    38d0:	004001fc 	.word	0x004001fc

000038d4 <_recording_dma_finished>:
    38d4:	e92d401f 	push	{r0, r1, r2, r3, r4, lr}
    38d8:	e59f4054 	ldr	r4, [pc, #84]	; 3934 <_recording_dma_finished+0x60>
    38dc:	e28d1004 	add	r1, sp, #4
    38e0:	e5940000 	ldr	r0, [r4]
    38e4:	eb00030f 	bl	4528 <circular_buffer_get_next>
    38e8:	e28d1008 	add	r1, sp, #8
    38ec:	e5940000 	ldr	r0, [r4]
    38f0:	eb00030c 	bl	4528 <circular_buffer_get_next>
    38f4:	e28d100c 	add	r1, sp, #12
    38f8:	e5940000 	ldr	r0, [r4]
    38fc:	eb000309 	bl	4528 <circular_buffer_get_next>
    3900:	e59f3030 	ldr	r3, [pc, #48]	; 3938 <_recording_dma_finished+0x64>
    3904:	e5dd0004 	ldrb	r0, [sp, #4]
    3908:	e5933000 	ldr	r3, [r3]
    390c:	e3a02018 	mov	r2, #24
    3910:	e0233092 	mla	r3, r2, r0, r3
    3914:	e59d100c 	ldr	r1, [sp, #12]
    3918:	e59d2008 	ldr	r2, [sp, #8]
    391c:	e3510000 	cmp	r1, #0
    3920:	e5832008 	str	r2, [r3, #8]
    3924:	0a000000 	beq	392c <_recording_dma_finished+0x58>
    3928:	e12fff31 	blx	r1
    392c:	e28dd010 	add	sp, sp, #16
    3930:	e8bd8010 	pop	{r4, pc}
    3934:	004000c0 	.word	0x004000c0
    3938:	004001fc 	.word	0x004001fc

0000393c <_buffering_in_handler>:
    393c:	e1d031b0 	ldrh	r3, [r0, #16]
    3940:	e1b02723 	lsrs	r2, r3, #14
    3944:	0a000024 	beq	39dc <_buffering_in_handler+0xa0>
    3948:	e1a03903 	lsl	r3, r3, #18
    394c:	e3530709 	cmp	r3, #2359296	; 0x240000
    3950:	1a000021 	bne	39dc <_buffering_in_handler+0xa0>
    3954:	e59f2084 	ldr	r2, [pc, #132]	; 39e0 <_buffering_in_handler+0xa4>
    3958:	e5d03013 	ldrb	r3, [r0, #19]
    395c:	e5921000 	ldr	r1, [r2]
    3960:	e1530001 	cmp	r3, r1
    3964:	1a00001c 	bne	39dc <_buffering_in_handler+0xa0>
    3968:	e2833001 	add	r3, r3, #1
    396c:	e20330ff 	and	r3, r3, #255	; 0xff
    3970:	e92d40f0 	push	{r4, r5, r6, r7, lr}
    3974:	e5823000 	str	r3, [r2]
    3978:	e59f3064 	ldr	r3, [pc, #100]	; 39e4 <_buffering_in_handler+0xa8>
    397c:	e3a01000 	mov	r1, #0
    3980:	e5d05012 	ldrb	r5, [r0, #18]
    3984:	e5936000 	ldr	r6, [r3]
    3988:	e1a0c000 	mov	ip, r0
    398c:	e1a07001 	mov	r7, r1
    3990:	e1510005 	cmp	r1, r5
    3994:	2a00000f 	bcs	39d8 <_buffering_in_handler+0x9c>
    3998:	e5dc2016 	ldrb	r2, [ip, #22]
    399c:	e59c4018 	ldr	r4, [ip, #24]
    39a0:	e0822082 	add	r2, r2, r2, lsl #1
    39a4:	e086e182 	add	lr, r6, r2, lsl #3
    39a8:	e59e300c 	ldr	r3, [lr, #12]
    39ac:	e2811001 	add	r1, r1, #1
    39b0:	e0833004 	add	r3, r3, r4
    39b4:	e59e4010 	ldr	r4, [lr, #16]
    39b8:	e28cc008 	add	ip, ip, #8
    39bc:	e1540003 	cmp	r4, r3
    39c0:	97962182 	ldrls	r2, [r6, r2, lsl #3]
    39c4:	e5ce7016 	strb	r7, [lr, #22]
    39c8:	90624004 	rsbls	r4, r2, r4
    39cc:	90643003 	rsbls	r3, r4, r3
    39d0:	e58e300c 	str	r3, [lr, #12]
    39d4:	eaffffed 	b	3990 <_buffering_in_handler+0x54>
    39d8:	e8bd40f0 	pop	{r4, r5, r6, r7, lr}
    39dc:	ea000a91 	b	6428 <__spin1_msg_free_from_arm>
    39e0:	004001f8 	.word	0x004001f8
    39e4:	004001fc 	.word	0x004001fc

000039e8 <_recording_write>:
    39e8:	e92d47f3 	push	{r0, r1, r4, r5, r6, r7, r8, r9, sl, lr}
    39ec:	e59d902c 	ldr	r9, [sp, #44]	; 0x2c
    39f0:	e1a04000 	mov	r4, r0
    39f4:	e3590000 	cmp	r9, #0
    39f8:	e1a07002 	mov	r7, r2
    39fc:	e1a08003 	mov	r8, r3
    3a00:	e59d6028 	ldr	r6, [sp, #40]	; 0x28
    3a04:	0a000014 	beq	3a5c <_recording_write+0x74>
    3a08:	e59f5074 	ldr	r5, [pc, #116]	; 3a84 <_recording_write+0x9c>
    3a0c:	e1a0a001 	mov	sl, r1
    3a10:	e1a01000 	mov	r1, r0
    3a14:	e5950000 	ldr	r0, [r5]
    3a18:	eb0002ad 	bl	44d4 <circular_buffer_add>
    3a1c:	e1a01006 	mov	r1, r6
    3a20:	e5950000 	ldr	r0, [r5]
    3a24:	eb0002aa 	bl	44d4 <circular_buffer_add>
    3a28:	e1a01009 	mov	r1, r9
    3a2c:	e5950000 	ldr	r0, [r5]
    3a30:	eb0002a7 	bl	44d4 <circular_buffer_add>
    3a34:	e58d8000 	str	r8, [sp]
    3a38:	e3a03001 	mov	r3, #1
    3a3c:	e1a0200a 	mov	r2, sl
    3a40:	e1a01007 	mov	r1, r7
    3a44:	e3a0000f 	mov	r0, #15
    3a48:	fa0007df 	blx	59cc <spin1_dma_transfer>
    3a4c:	e3500000 	cmp	r0, #0
    3a50:	1a000009 	bne	3a7c <_recording_write+0x94>
    3a54:	ebfff1e1 	bl	1e0 <cpu_wfi>
    3a58:	eafffff5 	b	3a34 <_recording_write+0x4c>
    3a5c:	e1a02003 	mov	r2, r3
    3a60:	e1a00007 	mov	r0, r7
    3a64:	fa000802 	blx	5a74 <spin1_memcpy>
    3a68:	e59f3018 	ldr	r3, [pc, #24]	; 3a88 <_recording_write+0xa0>
    3a6c:	e0844084 	add	r4, r4, r4, lsl #1
    3a70:	e5933000 	ldr	r3, [r3]
    3a74:	e0834184 	add	r4, r3, r4, lsl #3
    3a78:	e5846008 	str	r6, [r4, #8]
    3a7c:	e28dd008 	add	sp, sp, #8
    3a80:	e8bd87f0 	pop	{r4, r5, r6, r7, r8, r9, sl, pc}
    3a84:	004000c0 	.word	0x004000c0
    3a88:	004001fc 	.word	0x004001fc

00003a8c <recording_record_and_notify>:
    3a8c:	e92d4ff0 	push	{r4, r5, r6, r7, r8, r9, sl, fp, lr}
    3a90:	e59fa1bc 	ldr	sl, [pc, #444]	; 3c54 <recording_record_and_notify+0x1c8>
    3a94:	e0806080 	add	r6, r0, r0, lsl #1
    3a98:	e59ac000 	ldr	ip, [sl]
    3a9c:	e1a06186 	lsl	r6, r6, #3
    3aa0:	e79c4006 	ldr	r4, [ip, r6]
    3aa4:	e24dd014 	sub	sp, sp, #20
    3aa8:	e1a0e003 	mov	lr, r3
    3aac:	e3540000 	cmp	r4, #0
    3ab0:	e08c3006 	add	r3, ip, r6
    3ab4:	e58d300c 	str	r3, [sp, #12]
    3ab8:	0a000060 	beq	3c40 <recording_record_and_notify+0x1b4>
    3abc:	e1a05002 	mov	r5, r2
    3ac0:	e1a07000 	mov	r7, r0
    3ac4:	e58de008 	str	lr, [sp, #8]
    3ac8:	e1a08001 	mov	r8, r1
    3acc:	ebffff55 	bl	3828 <compute_available_space_in_channel>
    3ad0:	e59d300c 	ldr	r3, [sp, #12]
    3ad4:	e1550000 	cmp	r5, r0
    3ad8:	8a00004a 	bhi	3c08 <recording_record_and_notify+0x17c>
    3adc:	e5930004 	ldr	r0, [r3, #4]
    3ae0:	e593200c 	ldr	r2, [r3, #12]
    3ae4:	e1a0900a 	mov	r9, sl
    3ae8:	e1500002 	cmp	r0, r2
    3aec:	e593b010 	ldr	fp, [r3, #16]
    3af0:	8a000003 	bhi	3b04 <recording_record_and_notify+0x78>
    3af4:	e5d33016 	ldrb	r3, [r3, #22]
    3af8:	e3530000 	cmp	r3, #0
    3afc:	01500002 	cmpeq	r0, r2
    3b00:	1a00002c 	bne	3bb8 <recording_record_and_notify+0x12c>
    3b04:	e060a00b 	rsb	sl, r0, fp
    3b08:	e155000a 	cmp	r5, sl
    3b0c:	8a00000e 	bhi	3b4c <recording_record_and_notify+0xc0>
    3b10:	e080a005 	add	sl, r0, r5
    3b14:	e59d3008 	ldr	r3, [sp, #8]
    3b18:	e58d3004 	str	r3, [sp, #4]
    3b1c:	e58da000 	str	sl, [sp]
    3b20:	e1a03005 	mov	r3, r5
    3b24:	e1a02000 	mov	r2, r0
    3b28:	e1a01008 	mov	r1, r8
    3b2c:	e1a00007 	mov	r0, r7
    3b30:	ebffffac 	bl	39e8 <_recording_write>
    3b34:	e5993000 	ldr	r3, [r9]
    3b38:	e15b000a 	cmp	fp, sl
    3b3c:	91a0a004 	movls	sl, r4
    3b40:	e0836006 	add	r6, r3, r6
    3b44:	e586a004 	str	sl, [r6, #4]
    3b48:	ea000017 	b	3bac <recording_record_and_notify+0x120>
    3b4c:	e064300a 	rsb	r3, r4, sl
    3b50:	e0822003 	add	r2, r2, r3
    3b54:	e1550002 	cmp	r5, r2
    3b58:	8a00003a 	bhi	3c48 <recording_record_and_notify+0x1bc>
    3b5c:	e1a0200a 	mov	r2, sl
    3b60:	e1a01008 	mov	r1, r8
    3b64:	fa0007c2 	blx	5a74 <spin1_memcpy>
    3b68:	e5993000 	ldr	r3, [r9]
    3b6c:	e59d2008 	ldr	r2, [sp, #8]
    3b70:	e0833006 	add	r3, r3, r6
    3b74:	e5834008 	str	r4, [r3, #8]
    3b78:	e06a3005 	rsb	r3, sl, r5
    3b7c:	e0845003 	add	r5, r4, r3
    3b80:	e58d2004 	str	r2, [sp, #4]
    3b84:	e58d5000 	str	r5, [sp]
    3b88:	e1a02004 	mov	r2, r4
    3b8c:	e088100a 	add	r1, r8, sl
    3b90:	e1a00007 	mov	r0, r7
    3b94:	ebffff93 	bl	39e8 <_recording_write>
    3b98:	e5993000 	ldr	r3, [r9]
    3b9c:	e15b0005 	cmp	fp, r5
    3ba0:	01a05004 	moveq	r5, r4
    3ba4:	e0836006 	add	r6, r3, r6
    3ba8:	e5865004 	str	r5, [r6, #4]
    3bac:	e3a00001 	mov	r0, #1
    3bb0:	e5c60016 	strb	r0, [r6, #22]
    3bb4:	ea000024 	b	3c4c <recording_record_and_notify+0x1c0>
    3bb8:	e1500002 	cmp	r0, r2
    3bbc:	2a000021 	bcs	3c48 <recording_record_and_notify+0x1bc>
    3bc0:	e0602002 	rsb	r2, r0, r2
    3bc4:	e1550002 	cmp	r5, r2
    3bc8:	8a00001e 	bhi	3c48 <recording_record_and_notify+0x1bc>
    3bcc:	e0809005 	add	r9, r0, r5
    3bd0:	e59d3008 	ldr	r3, [sp, #8]
    3bd4:	e58d3004 	str	r3, [sp, #4]
    3bd8:	e58d9000 	str	r9, [sp]
    3bdc:	e1a03005 	mov	r3, r5
    3be0:	e1a02000 	mov	r2, r0
    3be4:	e1a01008 	mov	r1, r8
    3be8:	e1a00007 	mov	r0, r7
    3bec:	ebffff7d 	bl	39e8 <_recording_write>
    3bf0:	e59a3000 	ldr	r3, [sl]
    3bf4:	e15b0009 	cmp	fp, r9
    3bf8:	01a09004 	moveq	r9, r4
    3bfc:	e0836006 	add	r6, r3, r6
    3c00:	e5869004 	str	r9, [r6, #4]
    3c04:	eaffffe8 	b	3bac <recording_record_and_notify+0x120>
    3c08:	e5d34015 	ldrb	r4, [r3, #21]
    3c0c:	e3540000 	cmp	r4, #0
    3c10:	13a00000 	movne	r0, #0
    3c14:	1a00000c 	bne	3c4c <recording_record_and_notify+0x1c0>
    3c18:	e59f3038 	ldr	r3, [pc, #56]	; 3c58 <recording_record_and_notify+0x1cc>
    3c1c:	e58d7000 	str	r7, [sp]
    3c20:	e59f2034 	ldr	r2, [pc, #52]	; 3c5c <recording_record_and_notify+0x1d0>
    3c24:	e59f1034 	ldr	r1, [pc, #52]	; 3c60 <recording_record_and_notify+0x1d4>
    3c28:	e3a00002 	mov	r0, #2
    3c2c:	fa000517 	blx	5090 <io_printf>
    3c30:	e59a3000 	ldr	r3, [sl]
    3c34:	e0836006 	add	r6, r3, r6
    3c38:	e3a03001 	mov	r3, #1
    3c3c:	e5c63015 	strb	r3, [r6, #21]
    3c40:	e1a00004 	mov	r0, r4
    3c44:	ea000000 	b	3c4c <recording_record_and_notify+0x1c0>
    3c48:	e3a00001 	mov	r0, #1
    3c4c:	e28dd014 	add	sp, sp, #20
    3c50:	e8bd8ff0 	pop	{r4, r5, r6, r7, r8, r9, sl, fp, pc}
    3c54:	004001fc 	.word	0x004001fc
    3c58:	000001b6 	.word	0x000001b6
    3c5c:	00006e62 	.word	0x00006e62
    3c60:	00006e72 	.word	0x00006e72

00003c64 <recording_record>:
    3c64:	e3a03000 	mov	r3, #0
    3c68:	eaffff87 	b	3a8c <recording_record_and_notify>

00003c6c <_recording_buffer_state_data_write>:
    3c6c:	e92d41f0 	push	{r4, r5, r6, r7, r8, lr}
    3c70:	e59f504c 	ldr	r5, [pc, #76]	; 3cc4 <_recording_buffer_state_data_write+0x58>
    3c74:	e59f604c 	ldr	r6, [pc, #76]	; 3cc8 <_recording_buffer_state_data_write+0x5c>
    3c78:	e59f704c 	ldr	r7, [pc, #76]	; 3ccc <_recording_buffer_state_data_write+0x60>
    3c7c:	e3a04000 	mov	r4, #0
    3c80:	e5953000 	ldr	r3, [r5]
    3c84:	e1540003 	cmp	r4, r3
    3c88:	2a000007 	bcs	3cac <_recording_buffer_state_data_write+0x40>
    3c8c:	e5961000 	ldr	r1, [r6]
    3c90:	e5973000 	ldr	r3, [r7]
    3c94:	e3a02018 	mov	r2, #24
    3c98:	e0211492 	mla	r1, r2, r4, r1
    3c9c:	e7930104 	ldr	r0, [r3, r4, lsl #2]
    3ca0:	fa000773 	blx	5a74 <spin1_memcpy>
    3ca4:	e2844001 	add	r4, r4, #1
    3ca8:	eafffff4 	b	3c80 <_recording_buffer_state_data_write+0x14>
    3cac:	e59f301c 	ldr	r3, [pc, #28]	; 3cd0 <_recording_buffer_state_data_write+0x64>
    3cb0:	e59f201c 	ldr	r2, [pc, #28]	; 3cd4 <_recording_buffer_state_data_write+0x68>
    3cb4:	e5933000 	ldr	r3, [r3]
    3cb8:	e5922000 	ldr	r2, [r2]
    3cbc:	e5832000 	str	r2, [r3]
    3cc0:	e8bd81f0 	pop	{r4, r5, r6, r7, r8, pc}
    3cc4:	004000b0 	.word	0x004000b0
    3cc8:	004001fc 	.word	0x004001fc
    3ccc:	004000c4 	.word	0x004000c4
    3cd0:	004001ec 	.word	0x004001ec
    3cd4:	004001f8 	.word	0x004001f8

00003cd8 <recording_finalise>:
    3cd8:	e92d41f3 	push	{r0, r1, r4, r5, r6, r7, r8, lr}
    3cdc:	e59f50b8 	ldr	r5, [pc, #184]	; 3d9c <recording_finalise+0xc4>
    3ce0:	e5950000 	ldr	r0, [r5]
    3ce4:	eb00021e 	bl	4564 <circular_buffer_size>
    3ce8:	e2504000 	subs	r4, r0, #0
    3cec:	0a000001 	beq	3cf8 <recording_finalise+0x20>
    3cf0:	ebfff13a 	bl	1e0 <cpu_wfi>
    3cf4:	eafffff9 	b	3ce0 <recording_finalise+0x8>
    3cf8:	ebffffdb 	bl	3c6c <_recording_buffer_state_data_write>
    3cfc:	e59f609c 	ldr	r6, [pc, #156]	; 3da0 <recording_finalise+0xc8>
    3d00:	e59f709c 	ldr	r7, [pc, #156]	; 3da4 <recording_finalise+0xcc>
    3d04:	e1a08006 	mov	r8, r6
    3d08:	e5973000 	ldr	r3, [r7]
    3d0c:	e1540003 	cmp	r4, r3
    3d10:	2a00001f 	bcs	3d94 <recording_finalise+0xbc>
    3d14:	e20450ff 	and	r5, r4, #255	; 0xff
    3d18:	e3a03018 	mov	r3, #24
    3d1c:	e0050593 	mul	r5, r3, r5
    3d20:	e5962000 	ldr	r2, [r6]
    3d24:	e7921005 	ldr	r1, [r2, r5]
    3d28:	e3510000 	cmp	r1, #0
    3d2c:	0a000016 	beq	3d8c <recording_finalise+0xb4>
    3d30:	e0232394 	mla	r3, r4, r3, r2
    3d34:	e3a00002 	mov	r0, #2
    3d38:	e5d33015 	ldrb	r3, [r3, #21]
    3d3c:	e58d4000 	str	r4, [sp]
    3d40:	e3530000 	cmp	r3, #0
    3d44:	159f305c 	ldrne	r3, [pc, #92]	; 3da8 <recording_finalise+0xd0>
    3d48:	159f205c 	ldrne	r2, [pc, #92]	; 3dac <recording_finalise+0xd4>
    3d4c:	159f105c 	ldrne	r1, [pc, #92]	; 3db0 <recording_finalise+0xd8>
    3d50:	059f305c 	ldreq	r3, [pc, #92]	; 3db4 <recording_finalise+0xdc>
    3d54:	059f2050 	ldreq	r2, [pc, #80]	; 3dac <recording_finalise+0xd4>
    3d58:	059f1058 	ldreq	r1, [pc, #88]	; 3db8 <recording_finalise+0xe0>
    3d5c:	fa0004cb 	blx	5090 <io_printf>
    3d60:	e5982000 	ldr	r2, [r8]
    3d64:	e3a03000 	mov	r3, #0
    3d68:	e0821005 	add	r1, r2, r5
    3d6c:	e7823005 	str	r3, [r2, r5]
    3d70:	e3a00002 	mov	r0, #2
    3d74:	e5813010 	str	r3, [r1, #16]
    3d78:	e59f202c 	ldr	r2, [pc, #44]	; 3dac <recording_finalise+0xd4>
    3d7c:	e58d4000 	str	r4, [sp]
    3d80:	e59f3034 	ldr	r3, [pc, #52]	; 3dbc <recording_finalise+0xe4>
    3d84:	e59f1034 	ldr	r1, [pc, #52]	; 3dc0 <recording_finalise+0xe8>
    3d88:	fa0004c0 	blx	5090 <io_printf>
    3d8c:	e2844001 	add	r4, r4, #1
    3d90:	eaffffdc 	b	3d08 <recording_finalise+0x30>
    3d94:	e28dd008 	add	sp, sp, #8
    3d98:	e8bd81f0 	pop	{r4, r5, r6, r7, r8, pc}
    3d9c:	004000c0 	.word	0x004000c0
    3da0:	004001fc 	.word	0x004001fc
    3da4:	004000b0 	.word	0x004000b0
    3da8:	000001f9 	.word	0x000001f9
    3dac:	00006e62 	.word	0x00006e62
    3db0:	00006eb2 	.word	0x00006eb2
    3db4:	000001fd 	.word	0x000001fd
    3db8:	00006f20 	.word	0x00006f20
    3dbc:	00000202 	.word	0x00000202
    3dc0:	00006f69 	.word	0x00006f69

00003dc4 <recording_reset>:
    3dc4:	e92d40f0 	push	{r4, r5, r6, r7, lr}
    3dc8:	e59f60f0 	ldr	r6, [pc, #240]	; 3ec0 <recording_reset+0xfc>
    3dcc:	e59f70f0 	ldr	r7, [pc, #240]	; 3ec4 <recording_reset+0x100>
    3dd0:	e59f50f0 	ldr	r5, [pc, #240]	; 3ec8 <recording_reset+0x104>
    3dd4:	e24dd014 	sub	sp, sp, #20
    3dd8:	e3a04000 	mov	r4, #0
    3ddc:	e5963000 	ldr	r3, [r6]
    3de0:	e1540003 	cmp	r4, r3
    3de4:	2a000032 	bcs	3eb4 <recording_reset+0xf0>
    3de8:	e5973000 	ldr	r3, [r7]
    3dec:	e7933104 	ldr	r3, [r3, r4, lsl #2]
    3df0:	e3530000 	cmp	r3, #0
    3df4:	0a00001a 	beq	3e64 <recording_reset+0xa0>
    3df8:	e59f20cc 	ldr	r2, [pc, #204]	; 3ecc <recording_reset+0x108>
    3dfc:	e3a00018 	mov	r0, #24
    3e00:	e5922000 	ldr	r2, [r2]
    3e04:	e0000094 	mul	r0, r4, r0
    3e08:	e7922104 	ldr	r2, [r2, r4, lsl #2]
    3e0c:	e595c000 	ldr	ip, [r5]
    3e10:	e2822018 	add	r2, r2, #24
    3e14:	e78c2000 	str	r2, [ip, r0]
    3e18:	e08c1000 	add	r1, ip, r0
    3e1c:	e0820003 	add	r0, r2, r3
    3e20:	e5810010 	str	r0, [r1, #16]
    3e24:	e3a00000 	mov	r0, #0
    3e28:	e5812004 	str	r2, [r1, #4]
    3e2c:	e5812008 	str	r2, [r1, #8]
    3e30:	e581200c 	str	r2, [r1, #12]
    3e34:	e5c10016 	strb	r0, [r1, #22]
    3e38:	e5c14014 	strb	r4, [r1, #20]
    3e3c:	e5c10015 	strb	r0, [r1, #21]
    3e40:	e58d2008 	str	r2, [sp, #8]
    3e44:	e58d3004 	str	r3, [sp, #4]
    3e48:	e58d4000 	str	r4, [sp]
    3e4c:	e59f307c 	ldr	r3, [pc, #124]	; 3ed0 <recording_reset+0x10c>
    3e50:	e59f207c 	ldr	r2, [pc, #124]	; 3ed4 <recording_reset+0x110>
    3e54:	e59f107c 	ldr	r1, [pc, #124]	; 3ed8 <recording_reset+0x114>
    3e58:	e3a00002 	mov	r0, #2
    3e5c:	fa00048b 	blx	5090 <io_printf>
    3e60:	ea000011 	b	3eac <recording_reset+0xe8>
    3e64:	e3a01018 	mov	r1, #24
    3e68:	e0010194 	mul	r1, r4, r1
    3e6c:	e5950000 	ldr	r0, [r5]
    3e70:	e0802001 	add	r2, r0, r1
    3e74:	e7803001 	str	r3, [r0, r1]
    3e78:	e5823004 	str	r3, [r2, #4]
    3e7c:	e5823008 	str	r3, [r2, #8]
    3e80:	e582300c 	str	r3, [r2, #12]
    3e84:	e5823010 	str	r3, [r2, #16]
    3e88:	e5c23016 	strb	r3, [r2, #22]
    3e8c:	e5c23015 	strb	r3, [r2, #21]
    3e90:	e5c24014 	strb	r4, [r2, #20]
    3e94:	e59f3040 	ldr	r3, [pc, #64]	; 3edc <recording_reset+0x118>
    3e98:	e58d4000 	str	r4, [sp]
    3e9c:	e59f2030 	ldr	r2, [pc, #48]	; 3ed4 <recording_reset+0x110>
    3ea0:	e59f1038 	ldr	r1, [pc, #56]	; 3ee0 <recording_reset+0x11c>
    3ea4:	e3a00002 	mov	r0, #2
    3ea8:	fa000478 	blx	5090 <io_printf>
    3eac:	e2844001 	add	r4, r4, #1
    3eb0:	eaffffc9 	b	3ddc <recording_reset+0x18>
    3eb4:	e28dd014 	add	sp, sp, #20
    3eb8:	e8bd40f0 	pop	{r4, r5, r6, r7, lr}
    3ebc:	eaffff6a 	b	3c6c <_recording_buffer_state_data_write>
    3ec0:	004000b0 	.word	0x004000b0
    3ec4:	004001f0 	.word	0x004001f0
    3ec8:	004001fc 	.word	0x004001fc
    3ecc:	004000c4 	.word	0x004000c4
    3ed0:	000002a6 	.word	0x000002a6
    3ed4:	00006e62 	.word	0x00006e62
    3ed8:	00006f91 	.word	0x00006f91
    3edc:	000002b2 	.word	0x000002b2
    3ee0:	00006ff5 	.word	0x00006ff5

00003ee4 <recording_initialize>:
    3ee4:	e92d4ff0 	push	{r4, r5, r6, r7, r8, r9, sl, fp, lr}
    3ee8:	e1a06000 	mov	r6, r0
    3eec:	e24dd024 	sub	sp, sp, #36	; 0x24
    3ef0:	e3a00040 	mov	r0, #64	; 0x40
    3ef4:	e1a09001 	mov	r9, r1
    3ef8:	eb00013c 	bl	43f0 <circular_buffer_initialize>
    3efc:	e59f3280 	ldr	r3, [pc, #640]	; 4184 <recording_initialize+0x2a0>
    3f00:	e596200c 	ldr	r2, [r6, #12]
    3f04:	e59f427c 	ldr	r4, [pc, #636]	; 4188 <recording_initialize+0x2a4>
    3f08:	e5961000 	ldr	r1, [r6]
    3f0c:	e5841000 	str	r1, [r4]
    3f10:	e59fc274 	ldr	ip, [pc, #628]	; 418c <recording_initialize+0x2a8>
    3f14:	e5830000 	str	r0, [r3]
    3f18:	e5963004 	ldr	r3, [r6, #4]
    3f1c:	e58d3014 	str	r3, [sp, #20]
    3f20:	e5963008 	ldr	r3, [r6, #8]
    3f24:	e58d301c 	str	r3, [sp, #28]
    3f28:	e59f3260 	ldr	r3, [pc, #608]	; 4190 <recording_initialize+0x2ac>
    3f2c:	e5960010 	ldr	r0, [r6, #16]
    3f30:	e5832000 	str	r2, [r3]
    3f34:	e59f2258 	ldr	r2, [pc, #600]	; 4194 <recording_initialize+0x2b0>
    3f38:	e58d3018 	str	r3, [sp, #24]
    3f3c:	e5820000 	str	r0, [r2]
    3f40:	e5962014 	ldr	r2, [r6, #20]
    3f44:	e59f324c 	ldr	r3, [pc, #588]	; 4198 <recording_initialize+0x2b4>
    3f48:	e3520031 	cmp	r2, #49	; 0x31
    3f4c:	93a02032 	movls	r2, #50	; 0x32
    3f50:	e5832000 	str	r2, [r3]
    3f54:	e5933000 	ldr	r3, [r3]
    3f58:	e58d300c 	str	r3, [sp, #12]
    3f5c:	e59d3014 	ldr	r3, [sp, #20]
    3f60:	e2862018 	add	r2, r6, #24
    3f64:	e20330ff 	and	r3, r3, #255	; 0xff
    3f68:	e58c2000 	str	r2, [ip]
    3f6c:	e88d000a 	stm	sp, {r1, r3}
    3f70:	e58d0008 	str	r0, [sp, #8]
    3f74:	e59f3220 	ldr	r3, [pc, #544]	; 419c <recording_initialize+0x2b8>
    3f78:	e59f2220 	ldr	r2, [pc, #544]	; 41a0 <recording_initialize+0x2bc>
    3f7c:	e59f1220 	ldr	r1, [pc, #544]	; 41a4 <recording_initialize+0x2c0>
    3f80:	e3a00002 	mov	r0, #2
    3f84:	fa000441 	blx	5090 <io_printf>
    3f88:	e5940000 	ldr	r0, [r4]
    3f8c:	e1a00100 	lsl	r0, r0, #2
    3f90:	fa000702 	blx	5ba0 <spin1_malloc>
    3f94:	e59f320c 	ldr	r3, [pc, #524]	; 41a8 <recording_initialize+0x2c4>
    3f98:	e3500000 	cmp	r0, #0
    3f9c:	e1a04000 	mov	r4, r0
    3fa0:	e5830000 	str	r0, [r3]
    3fa4:	03a03f8f 	moveq	r3, #572	; 0x23c
    3fa8:	059f21f0 	ldreq	r2, [pc, #496]	; 41a0 <recording_initialize+0x2bc>
    3fac:	059f11f8 	ldreq	r1, [pc, #504]	; 41ac <recording_initialize+0x2c8>
    3fb0:	0a00000b 	beq	3fe4 <recording_initialize+0x100>
    3fb4:	e59f31cc 	ldr	r3, [pc, #460]	; 4188 <recording_initialize+0x2a4>
    3fb8:	e5930000 	ldr	r0, [r3]
    3fbc:	e1a00100 	lsl	r0, r0, #2
    3fc0:	fa0006f6 	blx	5ba0 <spin1_malloc>
    3fc4:	e59f31e4 	ldr	r3, [pc, #484]	; 41b0 <recording_initialize+0x2cc>
    3fc8:	e3500000 	cmp	r0, #0
    3fcc:	e1a04000 	mov	r4, r0
    3fd0:	e5830000 	str	r0, [r3]
    3fd4:	1a000006 	bne	3ff4 <recording_initialize+0x110>
    3fd8:	e59f31d4 	ldr	r3, [pc, #468]	; 41b4 <recording_initialize+0x2d0>
    3fdc:	e59f21bc 	ldr	r2, [pc, #444]	; 41a0 <recording_initialize+0x2bc>
    3fe0:	e59f11d0 	ldr	r1, [pc, #464]	; 41b8 <recording_initialize+0x2d4>
    3fe4:	e3a00002 	mov	r0, #2
    3fe8:	fa000428 	blx	5090 <io_printf>
    3fec:	e1a00004 	mov	r0, r4
    3ff0:	ea000061 	b	417c <recording_initialize+0x298>
    3ff4:	e3590000 	cmp	r9, #0
    3ff8:	e59fa1a8 	ldr	sl, [pc, #424]	; 41a8 <recording_initialize+0x2c4>
    3ffc:	e59fb1ac 	ldr	fp, [pc, #428]	; 41b0 <recording_initialize+0x2cc>
    4000:	13a03000 	movne	r3, #0
    4004:	e286801c 	add	r8, r6, #28
    4008:	e3a05000 	mov	r5, #0
    400c:	15893000 	strne	r3, [r9]
    4010:	e59f3170 	ldr	r3, [pc, #368]	; 4188 <recording_initialize+0x2a4>
    4014:	e5933000 	ldr	r3, [r3]
    4018:	e1550003 	cmp	r5, r3
    401c:	2a000029 	bcs	40c8 <recording_initialize+0x1e4>
    4020:	e0853003 	add	r3, r5, r3
    4024:	e2833007 	add	r3, r3, #7
    4028:	e7967103 	ldr	r7, [r6, r3, lsl #2]
    402c:	e3570000 	cmp	r7, #0
    4030:	0a00001c 	beq	40a8 <recording_initialize+0x1c4>
    4034:	e59b3000 	ldr	r3, [fp]
    4038:	e3a02000 	mov	r2, #0
    403c:	e7837105 	str	r7, [r3, r5, lsl #2]
    4040:	e5d2305c 	ldrb	r3, [r2, #92]	; 0x5c
    4044:	e59f0170 	ldr	r0, [pc, #368]	; 41bc <recording_initialize+0x2d8>
    4048:	e1a03403 	lsl	r3, r3, #8
    404c:	e2833003 	add	r3, r3, #3
    4050:	e2871018 	add	r1, r7, #24
    4054:	e590004c 	ldr	r0, [r0, #76]	; 0x4c
    4058:	e59a4000 	ldr	r4, [sl]
    405c:	fa000313 	blx	4cb0 <sark_xalloc>
    4060:	e59a3000 	ldr	r3, [sl]
    4064:	e7840105 	str	r0, [r4, r5, lsl #2]
    4068:	e7934105 	ldr	r4, [r3, r5, lsl #2]
    406c:	e3540000 	cmp	r4, #0
    4070:	1a000006 	bne	4090 <recording_initialize+0x1ac>
    4074:	e88d00a0 	stm	sp, {r5, r7}
    4078:	e59f3140 	ldr	r3, [pc, #320]	; 41c0 <recording_initialize+0x2dc>
    407c:	e59f211c 	ldr	r2, [pc, #284]	; 41a0 <recording_initialize+0x2bc>
    4080:	e59f113c 	ldr	r1, [pc, #316]	; 41c4 <recording_initialize+0x2e0>
    4084:	e3a00002 	mov	r0, #2
    4088:	fa000400 	blx	5090 <io_printf>
    408c:	eaffffd6 	b	3fec <recording_initialize+0x108>
    4090:	e5884000 	str	r4, [r8]
    4094:	e5993000 	ldr	r3, [r9]
    4098:	e3a02001 	mov	r2, #1
    409c:	e1833512 	orr	r3, r3, r2, lsl r5
    40a0:	e5893000 	str	r3, [r9]
    40a4:	ea000004 	b	40bc <recording_initialize+0x1d8>
    40a8:	e59a3000 	ldr	r3, [sl]
    40ac:	e5887000 	str	r7, [r8]
    40b0:	e7837105 	str	r7, [r3, r5, lsl #2]
    40b4:	e59b3000 	ldr	r3, [fp]
    40b8:	e7837105 	str	r7, [r3, r5, lsl #2]
    40bc:	e2855001 	add	r5, r5, #1
    40c0:	e2888004 	add	r8, r8, #4
    40c4:	eaffffd1 	b	4010 <recording_initialize+0x12c>
    40c8:	e3a01018 	mov	r1, #24
    40cc:	e0010193 	mul	r1, r3, r1
    40d0:	e3a00001 	mov	r0, #1
    40d4:	fa000327 	blx	4d78 <sark_alloc>
    40d8:	e59f30e8 	ldr	r3, [pc, #232]	; 41c8 <recording_initialize+0x2e4>
    40dc:	e3500000 	cmp	r0, #0
    40e0:	e1a04000 	mov	r4, r0
    40e4:	e5830000 	str	r0, [r3]
    40e8:	03a03f9a 	moveq	r3, #616	; 0x268
    40ec:	059f20ac 	ldreq	r2, [pc, #172]	; 41a0 <recording_initialize+0x2bc>
    40f0:	059f10d4 	ldreq	r1, [pc, #212]	; 41cc <recording_initialize+0x2e8>
    40f4:	0affffba 	beq	3fe4 <recording_initialize+0x100>
    40f8:	e59f40d0 	ldr	r4, [pc, #208]	; 41d0 <recording_initialize+0x2ec>
    40fc:	ebffff30 	bl	3dc4 <recording_reset>
    4100:	e59f30cc 	ldr	r3, [pc, #204]	; 41d4 <recording_initialize+0x2f0>
    4104:	e2842010 	add	r2, r4, #16
    4108:	e5832000 	str	r2, [r3]
    410c:	e59f30c4 	ldr	r3, [pc, #196]	; 41d8 <recording_initialize+0x2f4>
    4110:	e2842014 	add	r2, r4, #20
    4114:	e5832000 	str	r2, [r3]
    4118:	e3a03007 	mov	r3, #7
    411c:	e5c43008 	strb	r3, [r4, #8]
    4120:	e5dd3014 	ldrb	r3, [sp, #20]
    4124:	e5c43009 	strb	r3, [r4, #9]
    4128:	e3e03000 	mvn	r3, #0
    412c:	e5c4300a 	strb	r3, [r4, #10]
    4130:	e59d3018 	ldr	r3, [sp, #24]
    4134:	e5935000 	ldr	r5, [r3]
    4138:	fa000692 	blx	5b88 <spin1_get_core_id>
    413c:	e1a05285 	lsl	r5, r5, #5
    4140:	e20550ff 	and	r5, r5, #255	; 0xff
    4144:	e1dd31bc 	ldrh	r3, [sp, #28]
    4148:	e1c430bc 	strh	r3, [r4, #12]
    414c:	e1850000 	orr	r0, r5, r0
    4150:	e5c4000b 	strb	r0, [r4, #11]
    4154:	fa00068e 	blx	5b94 <spin1_get_chip_id>
    4158:	e59d3018 	ldr	r3, [sp, #24]
    415c:	e59f1078 	ldr	r1, [pc, #120]	; 41dc <recording_initialize+0x2f8>
    4160:	e1c400be 	strh	r0, [r4, #14]
    4164:	e5930000 	ldr	r0, [r3]
    4168:	ebfffd49 	bl	3694 <simulation_sdp_callback_on>
    416c:	e59f106c 	ldr	r1, [pc, #108]	; 41e0 <recording_initialize+0x2fc>
    4170:	e3a0000f 	mov	r0, #15
    4174:	ebfffd59 	bl	36e0 <simulation_dma_transfer_done_callback_on>
    4178:	e3a00001 	mov	r0, #1
    417c:	e28dd024 	add	sp, sp, #36	; 0x24
    4180:	e8bd8ff0 	pop	{r4, r5, r6, r7, r8, r9, sl, fp, pc}
    4184:	004000c0 	.word	0x004000c0
    4188:	004000b0 	.word	0x004000b0
    418c:	004001ec 	.word	0x004001ec
    4190:	004000bc 	.word	0x004000bc
    4194:	004001f4 	.word	0x004001f4
    4198:	004000b8 	.word	0x004000b8
    419c:	00000236 	.word	0x00000236
    41a0:	00006e62 	.word	0x00006e62
    41a4:	00007032 	.word	0x00007032
    41a8:	004000c4 	.word	0x004000c4
    41ac:	000070a3 	.word	0x000070a3
    41b0:	004001f0 	.word	0x004001f0
    41b4:	00000242 	.word	0x00000242
    41b8:	000070e9 	.word	0x000070e9
    41bc:	e5007f00 	.word	0xe5007f00
    41c0:	00000259 	.word	0x00000259
    41c4:	00007128 	.word	0x00007128
    41c8:	004001fc 	.word	0x004001fc
    41cc:	00007170 	.word	0x00007170
    41d0:	004000c8 	.word	0x004000c8
    41d4:	004000b4 	.word	0x004000b4
    41d8:	00400204 	.word	0x00400204
    41dc:	0000393c 	.word	0x0000393c
    41e0:	000038d4 	.word	0x000038d4

000041e4 <recording_do_timestep_update>:
    41e4:	e59f21d4 	ldr	r2, [pc, #468]	; 43c0 <recording_do_timestep_update+0x1dc>
    41e8:	e59f11d4 	ldr	r1, [pc, #468]	; 43c4 <recording_do_timestep_update+0x1e0>
    41ec:	e5923000 	ldr	r3, [r2]
    41f0:	e5911000 	ldr	r1, [r1]
    41f4:	e0633000 	rsb	r3, r3, r0
    41f8:	e92d4ff0 	push	{r4, r5, r6, r7, r8, r9, sl, fp, lr}
    41fc:	e1530001 	cmp	r3, r1
    4200:	e24dd024 	sub	sp, sp, #36	; 0x24
    4204:	e58d2018 	str	r2, [sp, #24]
    4208:	9a00006a 	bls	43b8 <recording_do_timestep_update+0x1d4>
    420c:	e3a05000 	mov	r5, #0
    4210:	e59f91b0 	ldr	r9, [pc, #432]	; 43c8 <recording_do_timestep_update+0x1e4>
    4214:	e59fa1b0 	ldr	sl, [pc, #432]	; 43cc <recording_do_timestep_update+0x1e8>
    4218:	e59fb1b0 	ldr	fp, [pc, #432]	; 43d0 <recording_do_timestep_update+0x1ec>
    421c:	e1a04005 	mov	r4, r5
    4220:	e58d001c 	str	r0, [sp, #28]
    4224:	e5993000 	ldr	r3, [r9]
    4228:	e1550003 	cmp	r5, r3
    422c:	2a000046 	bcs	434c <recording_do_timestep_update+0x168>
    4230:	e20570ff 	and	r7, r5, #255	; 0xff
    4234:	e1a00007 	mov	r0, r7
    4238:	ebfffd7a 	bl	3828 <compute_available_space_in_channel>
    423c:	e3a03018 	mov	r3, #24
    4240:	e0070793 	mul	r7, r3, r7
    4244:	e59a6000 	ldr	r6, [sl]
    4248:	e7962007 	ldr	r2, [r6, r7]
    424c:	e3520000 	cmp	r2, #0
    4250:	0a00003b 	beq	4344 <recording_do_timestep_update+0x160>
    4254:	e0030395 	mul	r3, r5, r3
    4258:	e0862003 	add	r2, r6, r3
    425c:	e5921010 	ldr	r1, [r2, #16]
    4260:	e7967003 	ldr	r7, [r6, r3]
    4264:	e0673001 	rsb	r3, r7, r1
    4268:	e0600003 	rsb	r0, r0, r3
    426c:	e59b3000 	ldr	r3, [fp]
    4270:	e1500003 	cmp	r0, r3
    4274:	3a000032 	bcc	4344 <recording_do_timestep_update+0x160>
    4278:	e5926008 	ldr	r6, [r2, #8]
    427c:	e592300c 	ldr	r3, [r2, #12]
    4280:	e1560003 	cmp	r6, r3
    4284:	9a000008 	bls	42ac <recording_do_timestep_update+0xc8>
    4288:	e59f0144 	ldr	r0, [pc, #324]	; 43d4 <recording_do_timestep_update+0x1f0>
    428c:	e0636006 	rsb	r6, r3, r6
    4290:	e58d6000 	str	r6, [sp]
    4294:	e1a01004 	mov	r1, r4
    4298:	e1a02005 	mov	r2, r5
    429c:	e5900000 	ldr	r0, [r0]
    42a0:	ebfffd78 	bl	3888 <_create_buffer_message>
    42a4:	e2844001 	add	r4, r4, #1
    42a8:	ea000025 	b	4344 <recording_do_timestep_update+0x160>
    42ac:	3a000007 	bcc	42d0 <recording_do_timestep_update+0xec>
    42b0:	e5d22016 	ldrb	r2, [r2, #22]
    42b4:	03a00001 	moveq	r0, #1
    42b8:	13a00000 	movne	r0, #0
    42bc:	e3520001 	cmp	r2, #1
    42c0:	13a00000 	movne	r0, #0
    42c4:	02000001 	andeq	r0, r0, #1
    42c8:	e3500000 	cmp	r0, #0
    42cc:	0a000010 	beq	4314 <recording_do_timestep_update+0x130>
    42d0:	e59f20fc 	ldr	r2, [pc, #252]	; 43d4 <recording_do_timestep_update+0x1f0>
    42d4:	e0631001 	rsb	r1, r3, r1
    42d8:	e5928000 	ldr	r8, [r2]
    42dc:	e0676006 	rsb	r6, r7, r6
    42e0:	e58d1000 	str	r1, [sp]
    42e4:	e1a02005 	mov	r2, r5
    42e8:	e1a01004 	mov	r1, r4
    42ec:	e1a00008 	mov	r0, r8
    42f0:	ebfffd64 	bl	3888 <_create_buffer_message>
    42f4:	e2841001 	add	r1, r4, #1
    42f8:	e58d6000 	str	r6, [sp]
    42fc:	e1a03007 	mov	r3, r7
    4300:	e1a02005 	mov	r2, r5
    4304:	e1a00008 	mov	r0, r8
    4308:	ebfffd5e 	bl	3888 <_create_buffer_message>
    430c:	e2844002 	add	r4, r4, #2
    4310:	ea00000b 	b	4344 <recording_do_timestep_update+0x160>
    4314:	e16f2f12 	clz	r2, r2
    4318:	e1a022a2 	lsr	r2, r2, #5
    431c:	e58d2014 	str	r2, [sp, #20]
    4320:	e58d300c 	str	r3, [sp, #12]
    4324:	e58d1008 	str	r1, [sp, #8]
    4328:	e58d6010 	str	r6, [sp, #16]
    432c:	e88d00a0 	stm	sp, {r5, r7}
    4330:	e3a03f61 	mov	r3, #388	; 0x184
    4334:	e59f209c 	ldr	r2, [pc, #156]	; 43d8 <recording_do_timestep_update+0x1f4>
    4338:	e59f109c 	ldr	r1, [pc, #156]	; 43dc <recording_do_timestep_update+0x1f8>
    433c:	e3a00002 	mov	r0, #2
    4340:	fa000352 	blx	5090 <io_printf>
    4344:	e2855001 	add	r5, r5, #1
    4348:	eaffffb5 	b	4224 <recording_do_timestep_update+0x40>
    434c:	e3540000 	cmp	r4, #0
    4350:	0a000015 	beq	43ac <recording_do_timestep_update+0x1c8>
    4354:	e59f3084 	ldr	r3, [pc, #132]	; 43e0 <recording_do_timestep_update+0x1fc>
    4358:	e5935000 	ldr	r5, [r3]
    435c:	e59f3080 	ldr	r3, [pc, #128]	; 43e4 <recording_do_timestep_update+0x200>
    4360:	e1c530b0 	strh	r3, [r5]
    4364:	fa00060a 	blx	5b94 <spin1_get_chip_id>
    4368:	e1c500b2 	strh	r0, [r5, #2]
    436c:	e59f5060 	ldr	r5, [pc, #96]	; 43d4 <recording_do_timestep_update+0x1f0>
    4370:	e5956000 	ldr	r6, [r5]
    4374:	fa000603 	blx	5b88 <spin1_get_core_id>
    4378:	e59f2068 	ldr	r2, [pc, #104]	; 43e8 <recording_do_timestep_update+0x204>
    437c:	e5953000 	ldr	r3, [r5]
    4380:	e5922000 	ldr	r2, [r2]
    4384:	e3a01001 	mov	r1, #1
    4388:	e1840180 	orr	r0, r4, r0, lsl #3
    438c:	e5c60000 	strb	r0, [r6]
    4390:	e5c32001 	strb	r2, [r3, #1]
    4394:	e3a0300c 	mov	r3, #12
    4398:	e0040493 	mul	r4, r3, r4
    439c:	e59f0048 	ldr	r0, [pc, #72]	; 43ec <recording_do_timestep_update+0x208>
    43a0:	e2844014 	add	r4, r4, #20
    43a4:	e1c040b4 	strh	r4, [r0, #4]
    43a8:	fa0003e7 	blx	534c <spin1_send_sdp_msg>
    43ac:	e59d3018 	ldr	r3, [sp, #24]
    43b0:	e59d201c 	ldr	r2, [sp, #28]
    43b4:	e5832000 	str	r2, [r3]
    43b8:	e28dd024 	add	sp, sp, #36	; 0x24
    43bc:	e8bd8ff0 	pop	{r4, r5, r6, r7, r8, r9, sl, fp, pc}
    43c0:	00400200 	.word	0x00400200
    43c4:	004000b8 	.word	0x004000b8
    43c8:	004000b0 	.word	0x004000b0
    43cc:	004001fc 	.word	0x004001fc
    43d0:	004001f4 	.word	0x004001f4
    43d4:	00400204 	.word	0x00400204
    43d8:	00006e62 	.word	0x00006e62
    43dc:	000071b3 	.word	0x000071b3
    43e0:	004000b4 	.word	0x004000b4
    43e4:	00004008 	.word	0x00004008
    43e8:	004001f8 	.word	0x004001f8
    43ec:	004000c8 	.word	0x004000c8

000043f0 <circular_buffer_initialize>:
    43f0:	e92d4070 	push	{r4, r5, r6, lr}
    43f4:	e2406001 	sub	r6, r0, #1
    43f8:	e1100006 	tst	r0, r6
    43fc:	e24dd008 	sub	sp, sp, #8
    4400:	e1a05000 	mov	r5, r0
    4404:	1a000013 	bne	4458 <circular_buffer_initialize+0x68>
    4408:	e3a01014 	mov	r1, #20
    440c:	e3a00001 	mov	r0, #1
    4410:	fa000258 	blx	4d78 <sark_alloc>
    4414:	e2504000 	subs	r4, r0, #0
    4418:	0a00001b 	beq	448c <circular_buffer_initialize+0x9c>
    441c:	e1a01105 	lsl	r1, r5, #2
    4420:	e3a00001 	mov	r0, #1
    4424:	fa000253 	blx	4d78 <sark_alloc>
    4428:	e3500000 	cmp	r0, #0
    442c:	e1a05000 	mov	r5, r0
    4430:	e5840000 	str	r0, [r4]
    4434:	0a00001b 	beq	44a8 <circular_buffer_initialize+0xb8>
    4438:	e3a03000 	mov	r3, #0
    443c:	e1a00004 	mov	r0, r4
    4440:	e5846004 	str	r6, [r4, #4]
    4444:	e584300c 	str	r3, [r4, #12]
    4448:	e5843008 	str	r3, [r4, #8]
    444c:	e5843010 	str	r3, [r4, #16]
    4450:	e28dd008 	add	sp, sp, #8
    4454:	e8bd8070 	pop	{r4, r5, r6, pc}
    4458:	e16f4f10 	clz	r4, r0
    445c:	e3a03001 	mov	r3, #1
    4460:	e2644020 	rsb	r4, r4, #32
    4464:	e1a04413 	lsl	r4, r3, r4
    4468:	e2446001 	sub	r6, r4, #1
    446c:	e88d0060 	stm	sp, {r5, r6}
    4470:	e3a0304f 	mov	r3, #79	; 0x4f
    4474:	e59f2048 	ldr	r2, [pc, #72]	; 44c4 <circular_buffer_initialize+0xd4>
    4478:	e59f1048 	ldr	r1, [pc, #72]	; 44c8 <circular_buffer_initialize+0xd8>
    447c:	e3a00002 	mov	r0, #2
    4480:	fa000302 	blx	5090 <io_printf>
    4484:	e1a05004 	mov	r5, r4
    4488:	eaffffde 	b	4408 <circular_buffer_initialize+0x18>
    448c:	e3a00002 	mov	r0, #2
    4490:	e3a03054 	mov	r3, #84	; 0x54
    4494:	e59f2028 	ldr	r2, [pc, #40]	; 44c4 <circular_buffer_initialize+0xd4>
    4498:	e59f102c 	ldr	r1, [pc, #44]	; 44cc <circular_buffer_initialize+0xdc>
    449c:	fa0002fb 	blx	5090 <io_printf>
    44a0:	e1a00004 	mov	r0, r4
    44a4:	eaffffe9 	b	4450 <circular_buffer_initialize+0x60>
    44a8:	e3a00002 	mov	r0, #2
    44ac:	e3a0305a 	mov	r3, #90	; 0x5a
    44b0:	e59f200c 	ldr	r2, [pc, #12]	; 44c4 <circular_buffer_initialize+0xd4>
    44b4:	e59f1014 	ldr	r1, [pc, #20]	; 44d0 <circular_buffer_initialize+0xe0>
    44b8:	fa0002f4 	blx	5090 <io_printf>
    44bc:	e1a00005 	mov	r0, r5
    44c0:	eaffffe2 	b	4450 <circular_buffer_initialize+0x60>
    44c4:	00007250 	.word	0x00007250
    44c8:	00007268 	.word	0x00007268
    44cc:	000072a8 	.word	0x000072a8
    44d0:	000072e8 	.word	0x000072e8

000044d4 <circular_buffer_add>:
    44d4:	e590c00c 	ldr	ip, [r0, #12]
    44d8:	e5902004 	ldr	r2, [r0, #4]
    44dc:	e1a03000 	mov	r3, r0
    44e0:	e52de004 	push	{lr}		; (str lr, [sp, #-4]!)
    44e4:	e5900008 	ldr	r0, [r0, #8]
    44e8:	e28ce001 	add	lr, ip, #1
    44ec:	e002200e 	and	r2, r2, lr
    44f0:	e1520000 	cmp	r2, r0
    44f4:	15932000 	ldrne	r2, [r3]
    44f8:	05932010 	ldreq	r2, [r3, #16]
    44fc:	1782110c 	strne	r1, [r2, ip, lsl #2]
    4500:	1593200c 	ldrne	r2, [r3, #12]
    4504:	15931004 	ldrne	r1, [r3, #4]
    4508:	12822001 	addne	r2, r2, #1
    450c:	10022001 	andne	r2, r2, r1
    4510:	02822001 	addeq	r2, r2, #1
    4514:	13a00001 	movne	r0, #1
    4518:	03a00000 	moveq	r0, #0
    451c:	1583200c 	strne	r2, [r3, #12]
    4520:	05832010 	streq	r2, [r3, #16]
    4524:	e49df004 	pop	{pc}		; (ldr pc, [sp], #4)

00004528 <circular_buffer_get_next>:
    4528:	e5902008 	ldr	r2, [r0, #8]
    452c:	e1a03000 	mov	r3, r0
    4530:	e590000c 	ldr	r0, [r0, #12]
    4534:	e1520000 	cmp	r2, r0
    4538:	13a00001 	movne	r0, #1
    453c:	03a00000 	moveq	r0, #0
    4540:	012fff1e 	bxeq	lr
    4544:	e593c000 	ldr	ip, [r3]
    4548:	e79c2102 	ldr	r2, [ip, r2, lsl #2]
    454c:	e5812000 	str	r2, [r1]
    4550:	e9930006 	ldmib	r3, {r1, r2}
    4554:	e2822001 	add	r2, r2, #1
    4558:	e0022001 	and	r2, r2, r1
    455c:	e5832008 	str	r2, [r3, #8]
    4560:	e12fff1e 	bx	lr

00004564 <circular_buffer_size>:
    4564:	e590300c 	ldr	r3, [r0, #12]
    4568:	e5902008 	ldr	r2, [r0, #8]
    456c:	e1530002 	cmp	r3, r2
    4570:	35900004 	ldrcc	r0, [r0, #4]
    4574:	30833000 	addcc	r3, r3, r0
    4578:	32833001 	addcc	r3, r3, #1
    457c:	e0620003 	rsb	r0, r2, r3
    4580:	e12fff1e 	bx	lr

00004584 <rte_handler>:
    4584:	4b01      	ldr	r3, [pc, #4]	; (458c <rte_handler+0x8>)
    4586:	2208      	movs	r2, #8
    4588:	701a      	strb	r2, [r3, #0]
    458a:	4770      	bx	lr
    458c:	e5007f2b 	.word	0xe5007f2b

00004590 <sark_cpu_state>:
    4590:	4b02      	ldr	r3, [pc, #8]	; (459c <sark_cpu_state+0xc>)
    4592:	69db      	ldr	r3, [r3, #28]
    4594:	332e      	adds	r3, #46	; 0x2e
    4596:	7018      	strb	r0, [r3, #0]
    4598:	4770      	bx	lr
    459a:	46c0      	nop			; (mov r8, r8)
    459c:	004005bc 	.word	0x004005bc

000045a0 <sark_app_lead>:
    45a0:	235c      	movs	r3, #92	; 0x5c
    45a2:	4a03      	ldr	r2, [pc, #12]	; (45b0 <sark_app_lead+0x10>)
    45a4:	781b      	ldrb	r3, [r3, #0]
    45a6:	6812      	ldr	r2, [r2, #0]
    45a8:	00db      	lsls	r3, r3, #3
    45aa:	18d3      	adds	r3, r2, r3
    45ac:	78d8      	ldrb	r0, [r3, #3]
    45ae:	4770      	bx	lr
    45b0:	e5007fe4 	.word	0xe5007fe4

000045b4 <sark_block_init>:
    45b4:	b530      	push	{r4, r5, lr}
    45b6:	000b      	movs	r3, r1
    45b8:	0004      	movs	r4, r0
    45ba:	3b01      	subs	r3, #1
    45bc:	2b00      	cmp	r3, #0
    45be:	d003      	beq.n	45c8 <sark_block_init+0x14>
    45c0:	18a5      	adds	r5, r4, r2
    45c2:	6025      	str	r5, [r4, #0]
    45c4:	002c      	movs	r4, r5
    45c6:	e7f8      	b.n	45ba <sark_block_init+0x6>
    45c8:	3901      	subs	r1, #1
    45ca:	4351      	muls	r1, r2
    45cc:	1840      	adds	r0, r0, r1
    45ce:	6003      	str	r3, [r0, #0]
    45d0:	bd30      	pop	{r4, r5, pc}
	...

000045d4 <sark_msg_get>:
    45d4:	b510      	push	{r4, lr}
    45d6:	f7fb edf8 	blx	1c8 <cpu_int_disable>
    45da:	4a09      	ldr	r2, [pc, #36]	; (4600 <sark_msg_get+0x2c>)
    45dc:	6a14      	ldr	r4, [r2, #32]
    45de:	2c00      	cmp	r4, #0
    45e0:	d00a      	beq.n	45f8 <sark_msg_get+0x24>
    45e2:	6823      	ldr	r3, [r4, #0]
    45e4:	6213      	str	r3, [r2, #32]
    45e6:	8c93      	ldrh	r3, [r2, #36]	; 0x24
    45e8:	8cd1      	ldrh	r1, [r2, #38]	; 0x26
    45ea:	3301      	adds	r3, #1
    45ec:	041b      	lsls	r3, r3, #16
    45ee:	0c1b      	lsrs	r3, r3, #16
    45f0:	8493      	strh	r3, [r2, #36]	; 0x24
    45f2:	4299      	cmp	r1, r3
    45f4:	d200      	bcs.n	45f8 <sark_msg_get+0x24>
    45f6:	84d3      	strh	r3, [r2, #38]	; 0x26
    45f8:	f7fb edee 	blx	1d8 <cpu_int_restore>
    45fc:	0020      	movs	r0, r4
    45fe:	bd10      	pop	{r4, pc}
    4600:	004005bc 	.word	0x004005bc

00004604 <sark_msg_free>:
    4604:	b510      	push	{r4, lr}
    4606:	0004      	movs	r4, r0
    4608:	f7fb edde 	blx	1c8 <cpu_int_disable>
    460c:	4b04      	ldr	r3, [pc, #16]	; (4620 <sark_msg_free+0x1c>)
    460e:	6a1a      	ldr	r2, [r3, #32]
    4610:	6022      	str	r2, [r4, #0]
    4612:	8c9a      	ldrh	r2, [r3, #36]	; 0x24
    4614:	621c      	str	r4, [r3, #32]
    4616:	3a01      	subs	r2, #1
    4618:	849a      	strh	r2, [r3, #36]	; 0x24
    461a:	f7fb edde 	blx	1d8 <cpu_int_restore>
    461e:	bd10      	pop	{r4, pc}
    4620:	004005bc 	.word	0x004005bc

00004624 <sark_shmsg_get>:
    4624:	b510      	push	{r4, lr}
    4626:	2000      	movs	r0, #0
    4628:	f7fb edde 	blx	1e8 <sark_lock_get>
    462c:	4a09      	ldr	r2, [pc, #36]	; (4654 <sark_shmsg_get+0x30>)
    462e:	6814      	ldr	r4, [r2, #0]
    4630:	2c00      	cmp	r4, #0
    4632:	d00a      	beq.n	464a <sark_shmsg_get+0x26>
    4634:	6823      	ldr	r3, [r4, #0]
    4636:	6013      	str	r3, [r2, #0]
    4638:	8893      	ldrh	r3, [r2, #4]
    463a:	88d1      	ldrh	r1, [r2, #6]
    463c:	3301      	adds	r3, #1
    463e:	041b      	lsls	r3, r3, #16
    4640:	0c1b      	lsrs	r3, r3, #16
    4642:	8093      	strh	r3, [r2, #4]
    4644:	4299      	cmp	r1, r3
    4646:	d200      	bcs.n	464a <sark_shmsg_get+0x26>
    4648:	80d3      	strh	r3, [r2, #6]
    464a:	2100      	movs	r1, #0
    464c:	f7fb edde 	blx	20c <sark_lock_free>
    4650:	0020      	movs	r0, r4
    4652:	bd10      	pop	{r4, pc}
    4654:	e5007f68 	.word	0xe5007f68

00004658 <sark_shmsg_free>:
    4658:	b510      	push	{r4, lr}
    465a:	0004      	movs	r4, r0
    465c:	2000      	movs	r0, #0
    465e:	f7fb edc4 	blx	1e8 <sark_lock_get>
    4662:	4b05      	ldr	r3, [pc, #20]	; (4678 <sark_shmsg_free+0x20>)
    4664:	2100      	movs	r1, #0
    4666:	681a      	ldr	r2, [r3, #0]
    4668:	6022      	str	r2, [r4, #0]
    466a:	889a      	ldrh	r2, [r3, #4]
    466c:	601c      	str	r4, [r3, #0]
    466e:	3a01      	subs	r2, #1
    4670:	809a      	strh	r2, [r3, #4]
    4672:	f7fb edcc 	blx	20c <sark_lock_free>
    4676:	bd10      	pop	{r4, pc}
    4678:	e5007f68 	.word	0xe5007f68

0000467c <sark_call_cpp_constructors>:
    467c:	b510      	push	{r4, lr}
    467e:	4c04      	ldr	r4, [pc, #16]	; (4690 <sark_call_cpp_constructors+0x14>)
    4680:	4b04      	ldr	r3, [pc, #16]	; (4694 <sark_call_cpp_constructors+0x18>)
    4682:	429c      	cmp	r4, r3
    4684:	d202      	bcs.n	468c <sark_call_cpp_constructors+0x10>
    4686:	cc08      	ldmia	r4!, {r3}
    4688:	4798      	blx	r3
    468a:	e7f9      	b.n	4680 <sark_call_cpp_constructors+0x4>
    468c:	bd10      	pop	{r4, pc}
    468e:	46c0      	nop			; (mov r8, r8)
    4690:	00006450 	.word	0x00006450
    4694:	00006450 	.word	0x00006450

00004698 <sark_init>:
    4698:	b570      	push	{r4, r5, r6, lr}
    469a:	2520      	movs	r5, #32
    469c:	0004      	movs	r4, r0
    469e:	8c28      	ldrh	r0, [r5, #32]
    46a0:	8c6a      	ldrh	r2, [r5, #34]	; 0x22
    46a2:	0080      	lsls	r0, r0, #2
    46a4:	1a20      	subs	r0, r4, r0
    46a6:	21d2      	movs	r1, #210	; 0xd2
    46a8:	f7fb ed72 	blx	190 <cpu_init_mode>
    46ac:	8caa      	ldrh	r2, [r5, #36]	; 0x24
    46ae:	21d1      	movs	r1, #209	; 0xd1
    46b0:	f7fb ed6e 	blx	190 <cpu_init_mode>
    46b4:	2200      	movs	r2, #0
    46b6:	21df      	movs	r1, #223	; 0xdf
    46b8:	f7fb ed6a 	blx	190 <cpu_init_mode>
    46bc:	8ce9      	ldrh	r1, [r5, #38]	; 0x26
    46be:	2658      	movs	r6, #88	; 0x58
    46c0:	0889      	lsrs	r1, r1, #2
    46c2:	0089      	lsls	r1, r1, #2
    46c4:	1a61      	subs	r1, r4, r1
    46c6:	4c38      	ldr	r4, [pc, #224]	; (47a8 <sark_init+0x110>)
    46c8:	6121      	str	r1, [r4, #16]
    46ca:	6ae8      	ldr	r0, [r5, #44]	; 0x2c
    46cc:	6160      	str	r0, [r4, #20]
    46ce:	f000 fbb3 	bl	4e38 <sark_heap_init>
    46d2:	4b36      	ldr	r3, [pc, #216]	; (47ac <sark_init+0x114>)
    46d4:	4a36      	ldr	r2, [pc, #216]	; (47b0 <sark_init+0x118>)
    46d6:	681b      	ldr	r3, [r3, #0]
    46d8:	4d36      	ldr	r5, [pc, #216]	; (47b4 <sark_init+0x11c>)
    46da:	0e1b      	lsrs	r3, r3, #24
    46dc:	6063      	str	r3, [r4, #4]
    46de:	189b      	adds	r3, r3, r2
    46e0:	2192      	movs	r1, #146	; 0x92
    46e2:	0049      	lsls	r1, r1, #1
    46e4:	61a0      	str	r0, [r4, #24]
    46e6:	781b      	ldrb	r3, [r3, #0]
    46e8:	6023      	str	r3, [r4, #0]
    46ea:	8cab      	ldrh	r3, [r5, #36]	; 0x24
    46ec:	8623      	strh	r3, [r4, #48]	; 0x30
    46ee:	4b32      	ldr	r3, [pc, #200]	; (47b8 <sark_init+0x120>)
    46f0:	60a3      	str	r3, [r4, #8]
    46f2:	7830      	ldrb	r0, [r6, #0]
    46f4:	f000 fb40 	bl	4d78 <sark_alloc>
    46f8:	2292      	movs	r2, #146	; 0x92
    46fa:	0052      	lsls	r2, r2, #1
    46fc:	6220      	str	r0, [r4, #32]
    46fe:	7831      	ldrb	r1, [r6, #0]
    4700:	f7ff ff58 	bl	45b4 <sark_block_init>
    4704:	4b2d      	ldr	r3, [pc, #180]	; (47bc <sark_init+0x124>)
    4706:	681a      	ldr	r2, [r3, #0]
    4708:	231f      	movs	r3, #31
    470a:	4013      	ands	r3, r2
    470c:	6862      	ldr	r2, [r4, #4]
    470e:	429a      	cmp	r2, r3
    4710:	d034      	beq.n	477c <sark_init+0xe4>
    4712:	6823      	ldr	r3, [r4, #0]
    4714:	4a2a      	ldr	r2, [pc, #168]	; (47c0 <sark_init+0x128>)
    4716:	01d8      	lsls	r0, r3, #7
    4718:	1880      	adds	r0, r0, r2
    471a:	6daa      	ldr	r2, [r5, #88]	; 0x58
    471c:	61e0      	str	r0, [r4, #28]
    471e:	435a      	muls	r2, r3
    4720:	0093      	lsls	r3, r2, #2
    4722:	6d6a      	ldr	r2, [r5, #84]	; 0x54
    4724:	2100      	movs	r1, #0
    4726:	18d3      	adds	r3, r2, r3
    4728:	2270      	movs	r2, #112	; 0x70
    472a:	6363      	str	r3, [r4, #52]	; 0x34
    472c:	f7fb ed82 	blx	234 <sark_word_set>
    4730:	69e0      	ldr	r0, [r4, #28]
    4732:	2205      	movs	r2, #5
    4734:	0003      	movs	r3, r0
    4736:	332e      	adds	r3, #46	; 0x2e
    4738:	701a      	strb	r2, [r3, #0]
    473a:	6862      	ldr	r2, [r4, #4]
    473c:	3b01      	subs	r3, #1
    473e:	701a      	strb	r2, [r3, #0]
    4740:	235c      	movs	r3, #92	; 0x5c
    4742:	781a      	ldrb	r2, [r3, #0]
    4744:	0003      	movs	r3, r0
    4746:	332f      	adds	r3, #47	; 0x2f
    4748:	701a      	strb	r2, [r3, #0]
    474a:	69eb      	ldr	r3, [r5, #28]
    474c:	6443      	str	r3, [r0, #68]	; 0x44
    474e:	4b1d      	ldr	r3, [pc, #116]	; (47c4 <sark_init+0x12c>)
    4750:	65c3      	str	r3, [r0, #92]	; 0x5c
    4752:	491d      	ldr	r1, [pc, #116]	; (47c8 <sark_init+0x130>)
    4754:	3048      	adds	r0, #72	; 0x48
    4756:	f7fb ed64 	blx	220 <sark_str_cpy>
    475a:	4b1c      	ldr	r3, [pc, #112]	; (47cc <sark_init+0x134>)
    475c:	22ff      	movs	r2, #255	; 0xff
    475e:	6819      	ldr	r1, [r3, #0]
    4760:	0412      	lsls	r2, r2, #16
    4762:	23c0      	movs	r3, #192	; 0xc0
    4764:	400a      	ands	r2, r1
    4766:	029b      	lsls	r3, r3, #10
    4768:	429a      	cmp	r2, r3
    476a:	d104      	bne.n	4776 <sark_init+0xde>
    476c:	23ff      	movs	r3, #255	; 0xff
    476e:	021b      	lsls	r3, r3, #8
    4770:	400b      	ands	r3, r1
    4772:	2bff      	cmp	r3, #255	; 0xff
    4774:	d802      	bhi.n	477c <sark_init+0xe4>
    4776:	2014      	movs	r0, #20
    4778:	f7fb ecd8 	blx	12c <rt_error>
    477c:	f000 fa3c 	bl	4bf8 <sark_vic_init>
    4780:	2359      	movs	r3, #89	; 0x59
    4782:	7818      	ldrb	r0, [r3, #0]
    4784:	2201      	movs	r2, #1
    4786:	4b12      	ldr	r3, [pc, #72]	; (47d0 <sark_init+0x138>)
    4788:	2112      	movs	r1, #18
    478a:	f000 fa5d 	bl	4c48 <sark_vic_set>
    478e:	2201      	movs	r2, #1
    4790:	2106      	movs	r1, #6
    4792:	4b10      	ldr	r3, [pc, #64]	; (47d4 <sark_init+0x13c>)
    4794:	2010      	movs	r0, #16
    4796:	f000 fa57 	bl	4c48 <sark_vic_set>
    479a:	235a      	movs	r3, #90	; 0x5a
    479c:	7818      	ldrb	r0, [r3, #0]
    479e:	f000 fa0d 	bl	4bbc <event_alloc>
    47a2:	201f      	movs	r0, #31
    47a4:	bd70      	pop	{r4, r5, r6, pc}
    47a6:	46c0      	nop			; (mov r8, r8)
    47a8:	004005bc 	.word	0x004005bc
    47ac:	40000014 	.word	0x40000014
    47b0:	e5007f94 	.word	0xe5007f94
    47b4:	e5007f00 	.word	0xe5007f00
    47b8:	deaddead 	.word	0xdeaddead
    47bc:	e2000034 	.word	0xe2000034
    47c0:	e5007000 	.word	0xe5007000
    47c4:	00030101 	.word	0x00030101
    47c8:	0000691c 	.word	0x0000691c
    47cc:	e5007ffc 	.word	0xe5007ffc
    47d0:	00000300 	.word	0x00000300
    47d4:	00004c88 	.word	0x00004c88

000047d8 <sark_msg_send>:
    47d8:	b5f8      	push	{r3, r4, r5, r6, r7, lr}
    47da:	0004      	movs	r4, r0
    47dc:	000f      	movs	r7, r1
    47de:	f7ff ff21 	bl	4624 <sark_shmsg_get>
    47e2:	1e06      	subs	r6, r0, #0
    47e4:	d038      	beq.n	4858 <sark_msg_send+0x80>
    47e6:	0021      	movs	r1, r4
    47e8:	f7fb ed36 	blx	258 <sark_msg_cpy>
    47ec:	4d1b      	ldr	r5, [pc, #108]	; (485c <sark_msg_send+0x84>)
    47ee:	2401      	movs	r4, #1
    47f0:	69eb      	ldr	r3, [r5, #28]
    47f2:	0020      	movs	r0, r4
    47f4:	635e      	str	r6, [r3, #52]	; 0x34
    47f6:	3339      	adds	r3, #57	; 0x39
    47f8:	701c      	strb	r4, [r3, #0]
    47fa:	f7fb ecf6 	blx	1e8 <sark_lock_get>
    47fe:	4b18      	ldr	r3, [pc, #96]	; (4860 <sark_msg_send+0x88>)
    4800:	6829      	ldr	r1, [r5, #0]
    4802:	681a      	ldr	r2, [r3, #0]
    4804:	469c      	mov	ip, r3
    4806:	0023      	movs	r3, r4
    4808:	408b      	lsls	r3, r1
    480a:	4313      	orrs	r3, r2
    480c:	4661      	mov	r1, ip
    480e:	600b      	str	r3, [r1, #0]
    4810:	2a00      	cmp	r2, #0
    4812:	d106      	bne.n	4822 <sark_msg_send+0x4a>
    4814:	4b13      	ldr	r3, [pc, #76]	; (4864 <sark_msg_send+0x8c>)
    4816:	781b      	ldrb	r3, [r3, #0]
    4818:	409c      	lsls	r4, r3
    481a:	4b13      	ldr	r3, [pc, #76]	; (4868 <sark_msg_send+0x90>)
    481c:	18e4      	adds	r4, r4, r3
    481e:	4b13      	ldr	r3, [pc, #76]	; (486c <sark_msg_send+0x94>)
    4820:	601c      	str	r4, [r3, #0]
    4822:	2101      	movs	r1, #1
    4824:	f7fb ecf2 	blx	20c <sark_lock_free>
    4828:	4b11      	ldr	r3, [pc, #68]	; (4870 <sark_msg_send+0x98>)
    482a:	6818      	ldr	r0, [r3, #0]
    482c:	001a      	movs	r2, r3
    482e:	69eb      	ldr	r3, [r5, #28]
    4830:	3339      	adds	r3, #57	; 0x39
    4832:	7819      	ldrb	r1, [r3, #0]
    4834:	2900      	cmp	r1, #0
    4836:	d003      	beq.n	4840 <sark_msg_send+0x68>
    4838:	6811      	ldr	r1, [r2, #0]
    483a:	1a09      	subs	r1, r1, r0
    483c:	42b9      	cmp	r1, r7
    483e:	d9f8      	bls.n	4832 <sark_msg_send+0x5a>
    4840:	781b      	ldrb	r3, [r3, #0]
    4842:	2b00      	cmp	r3, #0
    4844:	d004      	beq.n	4850 <sark_msg_send+0x78>
    4846:	0030      	movs	r0, r6
    4848:	f7ff ff06 	bl	4658 <sark_shmsg_free>
    484c:	2000      	movs	r0, #0
    484e:	e003      	b.n	4858 <sark_msg_send+0x80>
    4850:	6aeb      	ldr	r3, [r5, #44]	; 0x2c
    4852:	2001      	movs	r0, #1
    4854:	3301      	adds	r3, #1
    4856:	62eb      	str	r3, [r5, #44]	; 0x2c
    4858:	bdf8      	pop	{r3, r4, r5, r6, r7, pc}
    485a:	46c0      	nop			; (mov r8, r8)
    485c:	004005bc 	.word	0x004005bc
    4860:	e5007fec 	.word	0xe5007fec
    4864:	e5007fa8 	.word	0xe5007fa8
    4868:	5ec00000 	.word	0x5ec00000
    486c:	e2000008 	.word	0xe2000008
    4870:	e5007f10 	.word	0xe5007f10

00004874 <sark_cmd_ver>:
    4874:	4b0d      	ldr	r3, [pc, #52]	; (48ac <sark_cmd_ver+0x38>)
    4876:	b510      	push	{r4, lr}
    4878:	685a      	ldr	r2, [r3, #4]
    487a:	681b      	ldr	r3, [r3, #0]
    487c:	0212      	lsls	r2, r2, #8
    487e:	18d3      	adds	r3, r2, r3
    4880:	4a0b      	ldr	r2, [pc, #44]	; (48b0 <sark_cmd_ver+0x3c>)
    4882:	0004      	movs	r4, r0
    4884:	8812      	ldrh	r2, [r2, #0]
    4886:	490b      	ldr	r1, [pc, #44]	; (48b4 <sark_cmd_ver+0x40>)
    4888:	0412      	lsls	r2, r2, #16
    488a:	189b      	adds	r3, r3, r2
    488c:	6143      	str	r3, [r0, #20]
    488e:	4b0a      	ldr	r3, [pc, #40]	; (48b8 <sark_cmd_ver+0x44>)
    4890:	6183      	str	r3, [r0, #24]
    4892:	4b0a      	ldr	r3, [pc, #40]	; (48bc <sark_cmd_ver+0x48>)
    4894:	681b      	ldr	r3, [r3, #0]
    4896:	61c3      	str	r3, [r0, #28]
    4898:	3020      	adds	r0, #32
    489a:	f7fb ecc2 	blx	220 <sark_str_cpy>
    489e:	0020      	movs	r0, r4
    48a0:	302f      	adds	r0, #47	; 0x2f
    48a2:	4907      	ldr	r1, [pc, #28]	; (48c0 <sark_cmd_ver+0x4c>)
    48a4:	f7fb ecbc 	blx	220 <sark_str_cpy>
    48a8:	2021      	movs	r0, #33	; 0x21
    48aa:	bd10      	pop	{r4, pc}
    48ac:	004005bc 	.word	0x004005bc
    48b0:	e5007f00 	.word	0xe5007f00
    48b4:	00007343 	.word	0x00007343
    48b8:	ffff0100 	.word	0xffff0100
    48bc:	00006928 	.word	0x00006928
    48c0:	00007352 	.word	0x00007352

000048c4 <sark_cmd_read>:
    48c4:	6982      	ldr	r2, [r0, #24]
    48c6:	2180      	movs	r1, #128	; 0x80
    48c8:	b530      	push	{r4, r5, lr}
    48ca:	0003      	movs	r3, r0
    48cc:	0049      	lsls	r1, r1, #1
    48ce:	428a      	cmp	r2, r1
    48d0:	d802      	bhi.n	48d8 <sark_cmd_read+0x14>
    48d2:	69c0      	ldr	r0, [r0, #28]
    48d4:	2802      	cmp	r0, #2
    48d6:	d903      	bls.n	48e0 <sark_cmd_read+0x1c>
    48d8:	2284      	movs	r2, #132	; 0x84
    48da:	821a      	strh	r2, [r3, #16]
    48dc:	2000      	movs	r0, #0
    48de:	e021      	b.n	4924 <sark_cmd_read+0x60>
    48e0:	695c      	ldr	r4, [r3, #20]
    48e2:	3314      	adds	r3, #20
    48e4:	2800      	cmp	r0, #0
    48e6:	d105      	bne.n	48f4 <sark_cmd_read+0x30>
    48e8:	4290      	cmp	r0, r2
    48ea:	d01b      	beq.n	4924 <sark_cmd_read+0x60>
    48ec:	5d01      	ldrb	r1, [r0, r4]
    48ee:	5419      	strb	r1, [r3, r0]
    48f0:	3001      	adds	r0, #1
    48f2:	e7f9      	b.n	48e8 <sark_cmd_read+0x24>
    48f4:	2801      	cmp	r0, #1
    48f6:	d10a      	bne.n	490e <sark_cmd_read+0x4a>
    48f8:	0851      	lsrs	r1, r2, #1
    48fa:	0049      	lsls	r1, r1, #1
    48fc:	1859      	adds	r1, r3, r1
    48fe:	0018      	movs	r0, r3
    4900:	4288      	cmp	r0, r1
    4902:	d00e      	beq.n	4922 <sark_cmd_read+0x5e>
    4904:	1ac5      	subs	r5, r0, r3
    4906:	5b2d      	ldrh	r5, [r5, r4]
    4908:	8005      	strh	r5, [r0, #0]
    490a:	3002      	adds	r0, #2
    490c:	e7f8      	b.n	4900 <sark_cmd_read+0x3c>
    490e:	0891      	lsrs	r1, r2, #2
    4910:	0089      	lsls	r1, r1, #2
    4912:	1859      	adds	r1, r3, r1
    4914:	0018      	movs	r0, r3
    4916:	4288      	cmp	r0, r1
    4918:	d003      	beq.n	4922 <sark_cmd_read+0x5e>
    491a:	1ac5      	subs	r5, r0, r3
    491c:	592d      	ldr	r5, [r5, r4]
    491e:	c020      	stmia	r0!, {r5}
    4920:	e7f9      	b.n	4916 <sark_cmd_read+0x52>
    4922:	0010      	movs	r0, r2
    4924:	bd30      	pop	{r4, r5, pc}

00004926 <sark_cmd_write>:
    4926:	6983      	ldr	r3, [r0, #24]
    4928:	2280      	movs	r2, #128	; 0x80
    492a:	b530      	push	{r4, r5, lr}
    492c:	0052      	lsls	r2, r2, #1
    492e:	4293      	cmp	r3, r2
    4930:	d802      	bhi.n	4938 <sark_cmd_write+0x12>
    4932:	69c1      	ldr	r1, [r0, #28]
    4934:	2902      	cmp	r1, #2
    4936:	d902      	bls.n	493e <sark_cmd_write+0x18>
    4938:	2384      	movs	r3, #132	; 0x84
    493a:	8203      	strh	r3, [r0, #16]
    493c:	e024      	b.n	4988 <sark_cmd_write+0x62>
    493e:	6942      	ldr	r2, [r0, #20]
    4940:	3020      	adds	r0, #32
    4942:	2900      	cmp	r1, #0
    4944:	d108      	bne.n	4958 <sark_cmd_write+0x32>
    4946:	18c3      	adds	r3, r0, r3
    4948:	0001      	movs	r1, r0
    494a:	4299      	cmp	r1, r3
    494c:	d01c      	beq.n	4988 <sark_cmd_write+0x62>
    494e:	780d      	ldrb	r5, [r1, #0]
    4950:	1a0c      	subs	r4, r1, r0
    4952:	54a5      	strb	r5, [r4, r2]
    4954:	3101      	adds	r1, #1
    4956:	e7f8      	b.n	494a <sark_cmd_write+0x24>
    4958:	2901      	cmp	r1, #1
    495a:	d10a      	bne.n	4972 <sark_cmd_write+0x4c>
    495c:	085b      	lsrs	r3, r3, #1
    495e:	005b      	lsls	r3, r3, #1
    4960:	18c3      	adds	r3, r0, r3
    4962:	0001      	movs	r1, r0
    4964:	4299      	cmp	r1, r3
    4966:	d00f      	beq.n	4988 <sark_cmd_write+0x62>
    4968:	880d      	ldrh	r5, [r1, #0]
    496a:	1a0c      	subs	r4, r1, r0
    496c:	52a5      	strh	r5, [r4, r2]
    496e:	3102      	adds	r1, #2
    4970:	e7f8      	b.n	4964 <sark_cmd_write+0x3e>
    4972:	089b      	lsrs	r3, r3, #2
    4974:	009b      	lsls	r3, r3, #2
    4976:	18c3      	adds	r3, r0, r3
    4978:	0001      	movs	r1, r0
    497a:	4299      	cmp	r1, r3
    497c:	d004      	beq.n	4988 <sark_cmd_write+0x62>
    497e:	1a0c      	subs	r4, r1, r0
    4980:	680d      	ldr	r5, [r1, #0]
    4982:	50a5      	str	r5, [r4, r2]
    4984:	3104      	adds	r1, #4
    4986:	e7f8      	b.n	497a <sark_cmd_write+0x54>
    4988:	2000      	movs	r0, #0
    498a:	bd30      	pop	{r4, r5, pc}

0000498c <sark_cmd_fill>:
    498c:	b510      	push	{r4, lr}
    498e:	69c2      	ldr	r2, [r0, #28]
    4990:	6981      	ldr	r1, [r0, #24]
    4992:	6940      	ldr	r0, [r0, #20]
    4994:	f7fb ec4e 	blx	234 <sark_word_set>
    4998:	2000      	movs	r0, #0
    499a:	bd10      	pop	{r4, pc}

0000499c <sark_wait>:
    499c:	b570      	push	{r4, r5, r6, lr}
    499e:	255d      	movs	r5, #93	; 0x5d
    49a0:	2401      	movs	r4, #1
    49a2:	782b      	ldrb	r3, [r5, #0]
    49a4:	4223      	tst	r3, r4
    49a6:	d002      	beq.n	49ae <sark_wait+0x12>
    49a8:	f7fb ec1a 	blx	1e0 <cpu_wfi>
    49ac:	e7f9      	b.n	49a2 <sark_wait+0x6>
    49ae:	bd70      	pop	{r4, r5, r6, pc}

000049b0 <sark_int>:
    49b0:	b570      	push	{r4, r5, r6, lr}
    49b2:	4d54      	ldr	r5, [pc, #336]	; (4b04 <sark_int+0x154>)
    49b4:	2301      	movs	r3, #1
    49b6:	686a      	ldr	r2, [r5, #4]
    49b8:	4093      	lsls	r3, r2
    49ba:	4a53      	ldr	r2, [pc, #332]	; (4b08 <sark_int+0x158>)
    49bc:	189b      	adds	r3, r3, r2
    49be:	4a53      	ldr	r2, [pc, #332]	; (4b0c <sark_int+0x15c>)
    49c0:	6013      	str	r3, [r2, #0]
    49c2:	69ea      	ldr	r2, [r5, #28]
    49c4:	0011      	movs	r1, r2
    49c6:	3138      	adds	r1, #56	; 0x38
    49c8:	780b      	ldrb	r3, [r1, #0]
    49ca:	2b00      	cmp	r3, #0
    49cc:	d100      	bne.n	49d0 <sark_int+0x20>
    49ce:	e097      	b.n	4b00 <sark_int+0x150>
    49d0:	6b16      	ldr	r6, [r2, #48]	; 0x30
    49d2:	2b02      	cmp	r3, #2
    49d4:	d100      	bne.n	49d8 <sark_int+0x28>
    49d6:	6310      	str	r0, [r2, #48]	; 0x30
    49d8:	2200      	movs	r2, #0
    49da:	700a      	strb	r2, [r1, #0]
    49dc:	2b03      	cmp	r3, #3
    49de:	d124      	bne.n	4a2a <sark_int+0x7a>
    49e0:	1ef0      	subs	r0, r6, #3
    49e2:	280a      	cmp	r0, #10
    49e4:	d900      	bls.n	49e8 <sark_int+0x38>
    49e6:	e08b      	b.n	4b00 <sark_int+0x150>
    49e8:	f7fb fcbc 	bl	364 <__gnu_thumb1_case_uqi>
    49ec:	068a8a10 	.word	0x068a8a10
    49f0:	161b0c08 	.word	0x161b0c08
    49f4:	1616      	.short	0x1616
    49f6:	16          	.byte	0x16
    49f7:	00          	.byte	0x00
    49f8:	2001      	movs	r0, #1
    49fa:	e000      	b.n	49fe <sark_int+0x4e>
    49fc:	2000      	movs	r0, #0
    49fe:	f000 f8bb 	bl	4b78 <event_pause>
    4a02:	e07d      	b.n	4b00 <sark_int+0x150>
    4a04:	20ff      	movs	r0, #255	; 0xff
    4a06:	f000 f8cd 	bl	4ba4 <event_stop>
    4a0a:	e079      	b.n	4b00 <sark_int+0x150>
    4a0c:	225d      	movs	r2, #93	; 0x5d
    4a0e:	7813      	ldrb	r3, [r2, #0]
    4a10:	2101      	movs	r1, #1
    4a12:	438b      	bics	r3, r1
    4a14:	7013      	strb	r3, [r2, #0]
    4a16:	e073      	b.n	4b00 <sark_int+0x150>
    4a18:	4b3d      	ldr	r3, [pc, #244]	; (4b10 <sark_int+0x160>)
    4a1a:	2280      	movs	r2, #128	; 0x80
    4a1c:	62de      	str	r6, [r3, #44]	; 0x2c
    4a1e:	0592      	lsls	r2, r2, #22
    4a20:	e000      	b.n	4a24 <sark_int+0x74>
    4a22:	2210      	movs	r2, #16
    4a24:	4b3b      	ldr	r3, [pc, #236]	; (4b14 <sark_int+0x164>)
    4a26:	601a      	str	r2, [r3, #0]
    4a28:	e06a      	b.n	4b00 <sark_int+0x150>
    4a2a:	2b01      	cmp	r3, #1
    4a2c:	d168      	bne.n	4b00 <sark_int+0x150>
    4a2e:	f7ff fdd1 	bl	45d4 <sark_msg_get>
    4a32:	1e04      	subs	r4, r0, #0
    4a34:	d061      	beq.n	4afa <sark_int+0x14a>
    4a36:	0031      	movs	r1, r6
    4a38:	f7fb ec0e 	blx	258 <sark_msg_cpy>
    4a3c:	0030      	movs	r0, r6
    4a3e:	f7ff fe0b 	bl	4658 <sark_shmsg_free>
    4a42:	6aab      	ldr	r3, [r5, #40]	; 0x28
    4a44:	3301      	adds	r3, #1
    4a46:	62ab      	str	r3, [r5, #40]	; 0x28
    4a48:	7aa5      	ldrb	r5, [r4, #10]
    4a4a:	231f      	movs	r3, #31
    4a4c:	0028      	movs	r0, r5
    4a4e:	4398      	bics	r0, r3
    4a50:	d130      	bne.n	4ab4 <sark_int+0x104>
    4a52:	88a3      	ldrh	r3, [r4, #4]
    4a54:	2b17      	cmp	r3, #23
    4a56:	d801      	bhi.n	4a5c <sark_int+0xac>
    4a58:	2381      	movs	r3, #129	; 0x81
    4a5a:	e01b      	b.n	4a94 <sark_int+0xe4>
    4a5c:	8a23      	ldrh	r3, [r4, #16]
    4a5e:	2280      	movs	r2, #128	; 0x80
    4a60:	8222      	strh	r2, [r4, #16]
    4a62:	2b00      	cmp	r3, #0
    4a64:	d103      	bne.n	4a6e <sark_int+0xbe>
    4a66:	0020      	movs	r0, r4
    4a68:	f7ff ff04 	bl	4874 <sark_cmd_ver>
    4a6c:	e013      	b.n	4a96 <sark_int+0xe6>
    4a6e:	2b02      	cmp	r3, #2
    4a70:	d103      	bne.n	4a7a <sark_int+0xca>
    4a72:	0020      	movs	r0, r4
    4a74:	f7ff ff26 	bl	48c4 <sark_cmd_read>
    4a78:	e00d      	b.n	4a96 <sark_int+0xe6>
    4a7a:	2b03      	cmp	r3, #3
    4a7c:	d103      	bne.n	4a86 <sark_int+0xd6>
    4a7e:	0020      	movs	r0, r4
    4a80:	f7ff ff51 	bl	4926 <sark_cmd_write>
    4a84:	e007      	b.n	4a96 <sark_int+0xe6>
    4a86:	2b05      	cmp	r3, #5
    4a88:	d103      	bne.n	4a92 <sark_int+0xe2>
    4a8a:	0020      	movs	r0, r4
    4a8c:	f7ff ff7e 	bl	498c <sark_cmd_fill>
    4a90:	e001      	b.n	4a96 <sark_int+0xe6>
    4a92:	2383      	movs	r3, #131	; 0x83
    4a94:	8223      	strh	r3, [r4, #16]
    4a96:	7aa2      	ldrb	r2, [r4, #10]
    4a98:	7ae1      	ldrb	r1, [r4, #11]
    4a9a:	89a3      	ldrh	r3, [r4, #12]
    4a9c:	300c      	adds	r0, #12
    4a9e:	72e2      	strb	r2, [r4, #11]
    4aa0:	89e2      	ldrh	r2, [r4, #14]
    4aa2:	80a0      	strh	r0, [r4, #4]
    4aa4:	72a1      	strb	r1, [r4, #10]
    4aa6:	81a2      	strh	r2, [r4, #12]
    4aa8:	81e3      	strh	r3, [r4, #14]
    4aaa:	210a      	movs	r1, #10
    4aac:	0020      	movs	r0, r4
    4aae:	f7ff fe93 	bl	47d8 <sark_msg_send>
    4ab2:	e01e      	b.n	4af2 <sark_int+0x142>
    4ab4:	235b      	movs	r3, #91	; 0x5b
    4ab6:	781b      	ldrb	r3, [r3, #0]
    4ab8:	2b00      	cmp	r3, #0
    4aba:	d00f      	beq.n	4adc <sark_int+0x12c>
    4abc:	4b16      	ldr	r3, [pc, #88]	; (4b18 <sark_int+0x168>)
    4abe:	699b      	ldr	r3, [r3, #24]
    4ac0:	2b00      	cmp	r3, #0
    4ac2:	d016      	beq.n	4af2 <sark_int+0x142>
    4ac4:	f7fb eb80 	blx	1c8 <cpu_int_disable>
    4ac8:	096a      	lsrs	r2, r5, #5
    4aca:	0021      	movs	r1, r4
    4acc:	0006      	movs	r6, r0
    4ace:	2003      	movs	r0, #3
    4ad0:	f001 f86c 	bl	5bac <schedule_sysmode>
    4ad4:	0030      	movs	r0, r6
    4ad6:	f7fb eb80 	blx	1d8 <cpu_int_restore>
    4ada:	e011      	b.n	4b00 <sark_int+0x150>
    4adc:	4b0f      	ldr	r3, [pc, #60]	; (4b1c <sark_int+0x16c>)
    4ade:	681a      	ldr	r2, [r3, #0]
    4ae0:	2380      	movs	r3, #128	; 0x80
    4ae2:	055b      	lsls	r3, r3, #21
    4ae4:	421a      	tst	r2, r3
    4ae6:	d004      	beq.n	4af2 <sark_int+0x142>
    4ae8:	4a09      	ldr	r2, [pc, #36]	; (4b10 <sark_int+0x160>)
    4aea:	6294      	str	r4, [r2, #40]	; 0x28
    4aec:	4a09      	ldr	r2, [pc, #36]	; (4b14 <sark_int+0x164>)
    4aee:	6013      	str	r3, [r2, #0]
    4af0:	e006      	b.n	4b00 <sark_int+0x150>
    4af2:	0020      	movs	r0, r4
    4af4:	f7ff fd86 	bl	4604 <sark_msg_free>
    4af8:	e002      	b.n	4b00 <sark_int+0x150>
    4afa:	0030      	movs	r0, r6
    4afc:	f7ff fdac 	bl	4658 <sark_shmsg_free>
    4b00:	bd70      	pop	{r4, r5, r6, pc}
    4b02:	46c0      	nop			; (mov r8, r8)
    4b04:	004005bc 	.word	0x004005bc
    4b08:	5ec00000 	.word	0x5ec00000
    4b0c:	e200000c 	.word	0xe200000c
    4b10:	004005f8 	.word	0x004005f8
    4b14:	1f000018 	.word	0x1f000018
    4b18:	0040083c 	.word	0x0040083c
    4b1c:	1f000010 	.word	0x1f000010

00004b20 <event_wait>:
    4b20:	4b12      	ldr	r3, [pc, #72]	; (4b6c <event_wait+0x4c>)
    4b22:	b570      	push	{r4, r5, r6, lr}
    4b24:	681b      	ldr	r3, [r3, #0]
    4b26:	4c12      	ldr	r4, [pc, #72]	; (4b70 <event_wait+0x50>)
    4b28:	2501      	movs	r5, #1
    4b2a:	409d      	lsls	r5, r3
    4b2c:	7ea3      	ldrb	r3, [r4, #26]
    4b2e:	4e11      	ldr	r6, [pc, #68]	; (4b74 <event_wait+0x54>)
    4b30:	2b00      	cmp	r3, #0
    4b32:	d011      	beq.n	4b58 <event_wait+0x38>
    4b34:	2009      	movs	r0, #9
    4b36:	f7ff fd2b 	bl	4590 <sark_cpu_state>
    4b3a:	6833      	ldr	r3, [r6, #0]
    4b3c:	002a      	movs	r2, r5
    4b3e:	439a      	bics	r2, r3
    4b40:	d002      	beq.n	4b48 <event_wait+0x28>
    4b42:	f7fb eb4e 	blx	1e0 <cpu_wfi>
    4b46:	e7f8      	b.n	4b3a <event_wait+0x1a>
    4b48:	7ea3      	ldrb	r3, [r4, #26]
    4b4a:	2201      	movs	r2, #1
    4b4c:	4053      	eors	r3, r2
    4b4e:	2007      	movs	r0, #7
    4b50:	76a3      	strb	r3, [r4, #26]
    4b52:	f7ff fd1d 	bl	4590 <sark_cpu_state>
    4b56:	bd70      	pop	{r4, r5, r6, pc}
    4b58:	2008      	movs	r0, #8
    4b5a:	f7ff fd19 	bl	4590 <sark_cpu_state>
    4b5e:	6833      	ldr	r3, [r6, #0]
    4b60:	422b      	tst	r3, r5
    4b62:	d0f1      	beq.n	4b48 <event_wait+0x28>
    4b64:	f7fb eb3c 	blx	1e0 <cpu_wfi>
    4b68:	e7f9      	b.n	4b5e <event_wait+0x3e>
    4b6a:	46c0      	nop			; (mov r8, r8)
    4b6c:	004005bc 	.word	0x004005bc
    4b70:	004005f8 	.word	0x004005f8
    4b74:	e2000058 	.word	0xe2000058

00004b78 <event_pause>:
    4b78:	b570      	push	{r4, r5, r6, lr}
    4b7a:	1e05      	subs	r5, r0, #0
    4b7c:	4c08      	ldr	r4, [pc, #32]	; (4ba0 <event_pause+0x28>)
    4b7e:	d003      	beq.n	4b88 <event_pause+0x10>
    4b80:	2301      	movs	r3, #1
    4b82:	7623      	strb	r3, [r4, #24]
    4b84:	200a      	movs	r0, #10
    4b86:	e001      	b.n	4b8c <event_pause+0x14>
    4b88:	7620      	strb	r0, [r4, #24]
    4b8a:	2007      	movs	r0, #7
    4b8c:	f7ff fd00 	bl	4590 <sark_cpu_state>
    4b90:	6b23      	ldr	r3, [r4, #48]	; 0x30
    4b92:	2b00      	cmp	r3, #0
    4b94:	d002      	beq.n	4b9c <event_pause+0x24>
    4b96:	6b61      	ldr	r1, [r4, #52]	; 0x34
    4b98:	0028      	movs	r0, r5
    4b9a:	4798      	blx	r3
    4b9c:	bd70      	pop	{r4, r5, r6, pc}
    4b9e:	46c0      	nop			; (mov r8, r8)
    4ba0:	004005f8 	.word	0x004005f8

00004ba4 <event_stop>:
    4ba4:	4b03      	ldr	r3, [pc, #12]	; (4bb4 <event_stop+0x10>)
    4ba6:	2202      	movs	r2, #2
    4ba8:	761a      	strb	r2, [r3, #24]
    4baa:	4a03      	ldr	r2, [pc, #12]	; (4bb8 <event_stop+0x14>)
    4bac:	6cd9      	ldr	r1, [r3, #76]	; 0x4c
    4bae:	6011      	str	r1, [r2, #0]
    4bb0:	6398      	str	r0, [r3, #56]	; 0x38
    4bb2:	4770      	bx	lr
    4bb4:	004005f8 	.word	0x004005f8
    4bb8:	1f000014 	.word	0x1f000014

00004bbc <event_alloc>:
    4bbc:	b570      	push	{r4, r5, r6, lr}
    4bbe:	2118      	movs	r1, #24
    4bc0:	0006      	movs	r6, r0
    4bc2:	f000 f8d9 	bl	4d78 <sark_alloc>
    4bc6:	4d0b      	ldr	r5, [pc, #44]	; (4bf4 <event_alloc+0x38>)
    4bc8:	1e04      	subs	r4, r0, #0
    4bca:	d00d      	beq.n	4be8 <event_alloc+0x2c>
    4bcc:	0031      	movs	r1, r6
    4bce:	2218      	movs	r2, #24
    4bd0:	f7ff fcf0 	bl	45b4 <sark_block_init>
    4bd4:	0006      	movs	r6, r0
    4bd6:	f7fb eaf8 	blx	1c8 <cpu_int_disable>
    4bda:	682b      	ldr	r3, [r5, #0]
    4bdc:	6033      	str	r3, [r6, #0]
    4bde:	602c      	str	r4, [r5, #0]
    4be0:	f7fb eafa 	blx	1d8 <cpu_int_restore>
    4be4:	2001      	movs	r0, #1
    4be6:	e003      	b.n	4bf0 <event_alloc+0x34>
    4be8:	696a      	ldr	r2, [r5, #20]
    4bea:	2308      	movs	r3, #8
    4bec:	4313      	orrs	r3, r2
    4bee:	616b      	str	r3, [r5, #20]
    4bf0:	bd70      	pop	{r4, r5, r6, pc}
    4bf2:	46c0      	nop			; (mov r8, r8)
    4bf4:	004005f8 	.word	0x004005f8

00004bf8 <sark_vic_init>:
    4bf8:	4b0b      	ldr	r3, [pc, #44]	; (4c28 <sark_vic_init+0x30>)
    4bfa:	2201      	movs	r2, #1
    4bfc:	4252      	negs	r2, r2
    4bfe:	b510      	push	{r4, lr}
    4c00:	601a      	str	r2, [r3, #0]
    4c02:	4b0a      	ldr	r3, [pc, #40]	; (4c2c <sark_vic_init+0x34>)
    4c04:	2200      	movs	r2, #0
    4c06:	601a      	str	r2, [r3, #0]
    4c08:	4b09      	ldr	r3, [pc, #36]	; (4c30 <sark_vic_init+0x38>)
    4c0a:	4c0a      	ldr	r4, [pc, #40]	; (4c34 <sark_vic_init+0x3c>)
    4c0c:	601a      	str	r2, [r3, #0]
    4c0e:	490a      	ldr	r1, [pc, #40]	; (4c38 <sark_vic_init+0x40>)
    4c10:	4b0a      	ldr	r3, [pc, #40]	; (4c3c <sark_vic_init+0x44>)
    4c12:	1e58      	subs	r0, r3, #1
    4c14:	601a      	str	r2, [r3, #0]
    4c16:	38ff      	subs	r0, #255	; 0xff
    4c18:	3304      	adds	r3, #4
    4c1a:	6004      	str	r4, [r0, #0]
    4c1c:	428b      	cmp	r3, r1
    4c1e:	d1f8      	bne.n	4c12 <sark_vic_init+0x1a>
    4c20:	4b07      	ldr	r3, [pc, #28]	; (4c40 <sark_vic_init+0x48>)
    4c22:	4a08      	ldr	r2, [pc, #32]	; (4c44 <sark_vic_init+0x4c>)
    4c24:	601a      	str	r2, [r3, #0]
    4c26:	bd10      	pop	{r4, pc}
    4c28:	1f000014 	.word	0x1f000014
    4c2c:	1f00000c 	.word	0x1f00000c
    4c30:	1f000030 	.word	0x1f000030
    4c34:	00000108 	.word	0x00000108
    4c38:	1f000240 	.word	0x1f000240
    4c3c:	1f000200 	.word	0x1f000200
    4c40:	1f000034 	.word	0x1f000034
    4c44:	00000330 	.word	0x00000330

00004c48 <sark_vic_set>:
    4c48:	b510      	push	{r4, lr}
    4c4a:	2810      	cmp	r0, #16
    4c4c:	d104      	bne.n	4c58 <sark_vic_set+0x10>
    4c4e:	62c3      	str	r3, [r0, #44]	; 0x2c
    4c50:	2301      	movs	r3, #1
    4c52:	408b      	lsls	r3, r1
    4c54:	4809      	ldr	r0, [pc, #36]	; (4c7c <sark_vic_set+0x34>)
    4c56:	e009      	b.n	4c6c <sark_vic_set+0x24>
    4c58:	3040      	adds	r0, #64	; 0x40
    4c5a:	24f8      	movs	r4, #248	; 0xf8
    4c5c:	0080      	lsls	r0, r0, #2
    4c5e:	0564      	lsls	r4, r4, #21
    4c60:	1904      	adds	r4, r0, r4
    4c62:	6023      	str	r3, [r4, #0]
    4c64:	4b06      	ldr	r3, [pc, #24]	; (4c80 <sark_vic_set+0x38>)
    4c66:	18c0      	adds	r0, r0, r3
    4c68:	2320      	movs	r3, #32
    4c6a:	430b      	orrs	r3, r1
    4c6c:	6003      	str	r3, [r0, #0]
    4c6e:	2a00      	cmp	r2, #0
    4c70:	d003      	beq.n	4c7a <sark_vic_set+0x32>
    4c72:	2301      	movs	r3, #1
    4c74:	4a03      	ldr	r2, [pc, #12]	; (4c84 <sark_vic_set+0x3c>)
    4c76:	408b      	lsls	r3, r1
    4c78:	6013      	str	r3, [r2, #0]
    4c7a:	bd10      	pop	{r4, pc}
    4c7c:	1f00000c 	.word	0x1f00000c
    4c80:	1f000100 	.word	0x1f000100
    4c84:	1f000010 	.word	0x1f000010

00004c88 <sark_fiq_han>:
    4c88:	e92d000c 	push	{r2, r3}
    4c8c:	e59f2018 	ldr	r2, [pc, #24]	; 4cac <sark_fiq_han+0x24>
    4c90:	e3a03202 	mov	r3, #536870912	; 0x20000000
    4c94:	e5933014 	ldr	r3, [r3, #20]
    4c98:	e5923038 	ldr	r3, [r2, #56]	; 0x38
    4c9c:	e2833001 	add	r3, r3, #1
    4ca0:	e5823038 	str	r3, [r2, #56]	; 0x38
    4ca4:	e8bd000c 	pop	{r2, r3}
    4ca8:	e25ef004 	subs	pc, lr, #4
    4cac:	004005bc 	.word	0x004005bc

00004cb0 <sark_xalloc>:
    4cb0:	b5f7      	push	{r0, r1, r2, r4, r5, r6, r7, lr}
    4cb2:	0006      	movs	r6, r0
    4cb4:	0017      	movs	r7, r2
    4cb6:	2900      	cmp	r1, #0
    4cb8:	d058      	beq.n	4d6c <sark_xalloc+0xbc>
    4cba:	2aff      	cmp	r2, #255	; 0xff
    4cbc:	d856      	bhi.n	4d6c <sark_xalloc+0xbc>
    4cbe:	0a1d      	lsrs	r5, r3, #8
    4cc0:	079a      	lsls	r2, r3, #30
    4cc2:	d401      	bmi.n	4cc8 <sark_xalloc+0x18>
    4cc4:	225c      	movs	r2, #92	; 0x5c
    4cc6:	7815      	ldrb	r5, [r2, #0]
    4cc8:	022d      	lsls	r5, r5, #8
    4cca:	19ed      	adds	r5, r5, r7
    4ccc:	2f00      	cmp	r7, #0
    4cce:	d005      	beq.n	4cdc <sark_xalloc+0x2c>
    4cd0:	4a27      	ldr	r2, [pc, #156]	; (4d70 <sark_xalloc+0xc0>)
    4cd2:	00a8      	lsls	r0, r5, #2
    4cd4:	6812      	ldr	r2, [r2, #0]
    4cd6:	5882      	ldr	r2, [r0, r2]
    4cd8:	2a00      	cmp	r2, #0
    4cda:	d147      	bne.n	4d6c <sark_xalloc+0xbc>
    4cdc:	2203      	movs	r2, #3
    4cde:	3103      	adds	r1, #3
    4ce0:	4391      	bics	r1, r2
    4ce2:	3a02      	subs	r2, #2
    4ce4:	3108      	adds	r1, #8
    4ce6:	4013      	ands	r3, r2
    4ce8:	9101      	str	r1, [sp, #4]
    4cea:	9300      	str	r3, [sp, #0]
    4cec:	d003      	beq.n	4cf6 <sark_xalloc+0x46>
    4cee:	2006      	movs	r0, #6
    4cf0:	f7fb ea7a 	blx	1e8 <sark_lock_get>
    4cf4:	4684      	mov	ip, r0
    4cf6:	6834      	ldr	r4, [r6, #0]
    4cf8:	2200      	movs	r2, #0
    4cfa:	2c00      	cmp	r4, #0
    4cfc:	d02f      	beq.n	4d5e <sark_xalloc+0xae>
    4cfe:	9b01      	ldr	r3, [sp, #4]
    4d00:	6821      	ldr	r1, [r4, #0]
    4d02:	18e3      	adds	r3, r4, r3
    4d04:	429c      	cmp	r4, r3
    4d06:	d22a      	bcs.n	4d5e <sark_xalloc+0xae>
    4d08:	4299      	cmp	r1, r3
    4d0a:	d202      	bcs.n	4d12 <sark_xalloc+0x62>
    4d0c:	0022      	movs	r2, r4
    4d0e:	6864      	ldr	r4, [r4, #4]
    4d10:	e7f3      	b.n	4cfa <sark_xalloc+0x4a>
    4d12:	0018      	movs	r0, r3
    4d14:	3008      	adds	r0, #8
    4d16:	4281      	cmp	r1, r0
    4d18:	d904      	bls.n	4d24 <sark_xalloc+0x74>
    4d1a:	6019      	str	r1, [r3, #0]
    4d1c:	6861      	ldr	r1, [r4, #4]
    4d1e:	6023      	str	r3, [r4, #0]
    4d20:	6059      	str	r1, [r3, #4]
    4d22:	6063      	str	r3, [r4, #4]
    4d24:	6863      	ldr	r3, [r4, #4]
    4d26:	2a00      	cmp	r2, #0
    4d28:	d001      	beq.n	4d2e <sark_xalloc+0x7e>
    4d2a:	6053      	str	r3, [r2, #4]
    4d2c:	e000      	b.n	4d30 <sark_xalloc+0x80>
    4d2e:	6033      	str	r3, [r6, #0]
    4d30:	68f3      	ldr	r3, [r6, #12]
    4d32:	9a01      	ldr	r2, [sp, #4]
    4d34:	1a99      	subs	r1, r3, r2
    4d36:	9b00      	ldr	r3, [sp, #0]
    4d38:	60f1      	str	r1, [r6, #12]
    4d3a:	2b00      	cmp	r3, #0
    4d3c:	d003      	beq.n	4d46 <sark_xalloc+0x96>
    4d3e:	2106      	movs	r1, #6
    4d40:	4660      	mov	r0, ip
    4d42:	f7fb ea64 	blx	20c <sark_lock_free>
    4d46:	4b0b      	ldr	r3, [pc, #44]	; (4d74 <sark_xalloc+0xc4>)
    4d48:	0020      	movs	r0, r4
    4d4a:	18eb      	adds	r3, r5, r3
    4d4c:	6063      	str	r3, [r4, #4]
    4d4e:	3008      	adds	r0, #8
    4d50:	2f00      	cmp	r7, #0
    4d52:	d00c      	beq.n	4d6e <sark_xalloc+0xbe>
    4d54:	4b06      	ldr	r3, [pc, #24]	; (4d70 <sark_xalloc+0xc0>)
    4d56:	00ad      	lsls	r5, r5, #2
    4d58:	681b      	ldr	r3, [r3, #0]
    4d5a:	50e8      	str	r0, [r5, r3]
    4d5c:	e007      	b.n	4d6e <sark_xalloc+0xbe>
    4d5e:	9b00      	ldr	r3, [sp, #0]
    4d60:	2b00      	cmp	r3, #0
    4d62:	d003      	beq.n	4d6c <sark_xalloc+0xbc>
    4d64:	2106      	movs	r1, #6
    4d66:	4660      	mov	r0, ip
    4d68:	f7fb ea50 	blx	20c <sark_lock_free>
    4d6c:	2000      	movs	r0, #0
    4d6e:	bdfe      	pop	{r1, r2, r3, r4, r5, r6, r7, pc}
    4d70:	e5007fdc 	.word	0xe5007fdc
    4d74:	ffff0000 	.word	0xffff0000

00004d78 <sark_alloc>:
    4d78:	4341      	muls	r1, r0
    4d7a:	4804      	ldr	r0, [pc, #16]	; (4d8c <sark_alloc+0x14>)
    4d7c:	2300      	movs	r3, #0
    4d7e:	b510      	push	{r4, lr}
    4d80:	001a      	movs	r2, r3
    4d82:	6980      	ldr	r0, [r0, #24]
    4d84:	f7ff ff94 	bl	4cb0 <sark_xalloc>
    4d88:	bd10      	pop	{r4, pc}
    4d8a:	46c0      	nop			; (mov r8, r8)
    4d8c:	004005bc 	.word	0x004005bc

00004d90 <sark_xfree>:
    4d90:	b5f7      	push	{r0, r1, r2, r4, r5, r6, r7, lr}
    4d92:	0006      	movs	r6, r0
    4d94:	000c      	movs	r4, r1
    4d96:	0015      	movs	r5, r2
    4d98:	2900      	cmp	r1, #0
    4d9a:	d102      	bne.n	4da2 <sark_xfree+0x12>
    4d9c:	2010      	movs	r0, #16
    4d9e:	f7fb e9c6 	blx	12c <rt_error>
    4da2:	2301      	movs	r3, #1
    4da4:	401d      	ands	r5, r3
    4da6:	d003      	beq.n	4db0 <sark_xfree+0x20>
    4da8:	2006      	movs	r0, #6
    4daa:	f7fb ea1e 	blx	1e8 <sark_lock_get>
    4dae:	9001      	str	r0, [sp, #4]
    4db0:	0021      	movs	r1, r4
    4db2:	3908      	subs	r1, #8
    4db4:	684a      	ldr	r2, [r1, #4]
    4db6:	6833      	ldr	r3, [r6, #0]
    4db8:	0610      	lsls	r0, r2, #24
    4dba:	0e00      	lsrs	r0, r0, #24
    4dbc:	d006      	beq.n	4dcc <sark_xfree+0x3c>
    4dbe:	481d      	ldr	r0, [pc, #116]	; (4e34 <sark_xfree+0xa4>)
    4dc0:	0412      	lsls	r2, r2, #16
    4dc2:	0c12      	lsrs	r2, r2, #16
    4dc4:	6800      	ldr	r0, [r0, #0]
    4dc6:	0092      	lsls	r2, r2, #2
    4dc8:	2700      	movs	r7, #0
    4dca:	5017      	str	r7, [r2, r0]
    4dcc:	3c08      	subs	r4, #8
    4dce:	6820      	ldr	r0, [r4, #0]
    4dd0:	68f7      	ldr	r7, [r6, #12]
    4dd2:	1a42      	subs	r2, r0, r1
    4dd4:	18ba      	adds	r2, r7, r2
    4dd6:	60f2      	str	r2, [r6, #12]
    4dd8:	2200      	movs	r2, #0
    4dda:	2b00      	cmp	r3, #0
    4ddc:	d004      	beq.n	4de8 <sark_xfree+0x58>
    4dde:	428b      	cmp	r3, r1
    4de0:	d802      	bhi.n	4de8 <sark_xfree+0x58>
    4de2:	001a      	movs	r2, r3
    4de4:	685b      	ldr	r3, [r3, #4]
    4de6:	e7f8      	b.n	4dda <sark_xfree+0x4a>
    4de8:	6063      	str	r3, [r4, #4]
    4dea:	2a00      	cmp	r2, #0
    4dec:	d00a      	beq.n	4e04 <sark_xfree+0x74>
    4dee:	6051      	str	r1, [r2, #4]
    4df0:	2b00      	cmp	r3, #0
    4df2:	d10b      	bne.n	4e0c <sark_xfree+0x7c>
    4df4:	6813      	ldr	r3, [r2, #0]
    4df6:	4299      	cmp	r1, r3
    4df8:	d110      	bne.n	4e1c <sark_xfree+0x8c>
    4dfa:	6823      	ldr	r3, [r4, #0]
    4dfc:	6013      	str	r3, [r2, #0]
    4dfe:	6863      	ldr	r3, [r4, #4]
    4e00:	6053      	str	r3, [r2, #4]
    4e02:	e00b      	b.n	4e1c <sark_xfree+0x8c>
    4e04:	6031      	str	r1, [r6, #0]
    4e06:	2b00      	cmp	r3, #0
    4e08:	d10f      	bne.n	4e2a <sark_xfree+0x9a>
    4e0a:	e007      	b.n	4e1c <sark_xfree+0x8c>
    4e0c:	4298      	cmp	r0, r3
    4e0e:	d1f1      	bne.n	4df4 <sark_xfree+0x64>
    4e10:	6803      	ldr	r3, [r0, #0]
    4e12:	6023      	str	r3, [r4, #0]
    4e14:	6843      	ldr	r3, [r0, #4]
    4e16:	6063      	str	r3, [r4, #4]
    4e18:	2a00      	cmp	r2, #0
    4e1a:	d1eb      	bne.n	4df4 <sark_xfree+0x64>
    4e1c:	2d00      	cmp	r5, #0
    4e1e:	d007      	beq.n	4e30 <sark_xfree+0xa0>
    4e20:	2106      	movs	r1, #6
    4e22:	9801      	ldr	r0, [sp, #4]
    4e24:	f7fb e9f2 	blx	20c <sark_lock_free>
    4e28:	e002      	b.n	4e30 <sark_xfree+0xa0>
    4e2a:	4298      	cmp	r0, r3
    4e2c:	d1f6      	bne.n	4e1c <sark_xfree+0x8c>
    4e2e:	e7ef      	b.n	4e10 <sark_xfree+0x80>
    4e30:	bdf7      	pop	{r0, r1, r2, r4, r5, r6, r7, pc}
    4e32:	46c0      	nop			; (mov r8, r8)
    4e34:	e5007fdc 	.word	0xe5007fdc

00004e38 <sark_heap_init>:
    4e38:	0003      	movs	r3, r0
    4e3a:	3908      	subs	r1, #8
    4e3c:	3310      	adds	r3, #16
    4e3e:	6043      	str	r3, [r0, #4]
    4e40:	6003      	str	r3, [r0, #0]
    4e42:	1acb      	subs	r3, r1, r3
    4e44:	3b08      	subs	r3, #8
    4e46:	60c3      	str	r3, [r0, #12]
    4e48:	2300      	movs	r3, #0
    4e4a:	6101      	str	r1, [r0, #16]
    4e4c:	6081      	str	r1, [r0, #8]
    4e4e:	600b      	str	r3, [r1, #0]
    4e50:	6143      	str	r3, [r0, #20]
    4e52:	604b      	str	r3, [r1, #4]
    4e54:	4770      	bx	lr
	...

00004e58 <io_buf_init>:
    4e58:	b570      	push	{r4, r5, r6, lr}
    4e5a:	4d0c      	ldr	r5, [pc, #48]	; (4e8c <io_buf_init+0x34>)
    4e5c:	480c      	ldr	r0, [pc, #48]	; (4e90 <io_buf_init+0x38>)
    4e5e:	6d29      	ldr	r1, [r5, #80]	; 0x50
    4e60:	2301      	movs	r3, #1
    4e62:	3110      	adds	r1, #16
    4e64:	2200      	movs	r2, #0
    4e66:	6800      	ldr	r0, [r0, #0]
    4e68:	f7ff ff22 	bl	4cb0 <sark_xalloc>
    4e6c:	1e04      	subs	r4, r0, #0
    4e6e:	d102      	bne.n	4e76 <io_buf_init+0x1e>
    4e70:	200e      	movs	r0, #14
    4e72:	f7fb e95c 	blx	12c <rt_error>
    4e76:	69eb      	ldr	r3, [r5, #28]
    4e78:	6063      	str	r3, [r4, #4]
    4e7a:	4a06      	ldr	r2, [pc, #24]	; (4e94 <io_buf_init+0x3c>)
    4e7c:	8b2b      	ldrh	r3, [r5, #24]
    4e7e:	60a3      	str	r3, [r4, #8]
    4e80:	2300      	movs	r3, #0
    4e82:	0020      	movs	r0, r4
    4e84:	6023      	str	r3, [r4, #0]
    4e86:	6013      	str	r3, [r2, #0]
    4e88:	60e3      	str	r3, [r4, #12]
    4e8a:	bd70      	pop	{r4, r5, r6, pc}
    4e8c:	e5007f00 	.word	0xe5007f00
    4e90:	e5007fd0 	.word	0xe5007fd0
    4e94:	00400210 	.word	0x00400210

00004e98 <sark_io_buf_reset>:
    4e98:	b570      	push	{r4, r5, r6, lr}
    4e9a:	f7fb e996 	blx	1c8 <cpu_int_disable>
    4e9e:	4b0c      	ldr	r3, [pc, #48]	; (4ed0 <sark_io_buf_reset+0x38>)
    4ea0:	4a0c      	ldr	r2, [pc, #48]	; (4ed4 <sark_io_buf_reset+0x3c>)
    4ea2:	69db      	ldr	r3, [r3, #28]
    4ea4:	6d9b      	ldr	r3, [r3, #88]	; 0x58
    4ea6:	6013      	str	r3, [r2, #0]
    4ea8:	2200      	movs	r2, #0
    4eaa:	681c      	ldr	r4, [r3, #0]
    4eac:	60da      	str	r2, [r3, #12]
    4eae:	601a      	str	r2, [r3, #0]
    4eb0:	4b09      	ldr	r3, [pc, #36]	; (4ed8 <sark_io_buf_reset+0x40>)
    4eb2:	601a      	str	r2, [r3, #0]
    4eb4:	f7fb e990 	blx	1d8 <cpu_int_restore>
    4eb8:	2c00      	cmp	r4, #0
    4eba:	d008      	beq.n	4ece <sark_io_buf_reset+0x36>
    4ebc:	4b07      	ldr	r3, [pc, #28]	; (4edc <sark_io_buf_reset+0x44>)
    4ebe:	6825      	ldr	r5, [r4, #0]
    4ec0:	0021      	movs	r1, r4
    4ec2:	2201      	movs	r2, #1
    4ec4:	6818      	ldr	r0, [r3, #0]
    4ec6:	f7ff ff63 	bl	4d90 <sark_xfree>
    4eca:	002c      	movs	r4, r5
    4ecc:	e7f4      	b.n	4eb8 <sark_io_buf_reset+0x20>
    4ece:	bd70      	pop	{r4, r5, r6, pc}
    4ed0:	004005bc 	.word	0x004005bc
    4ed4:	0040020c 	.word	0x0040020c
    4ed8:	00400210 	.word	0x00400210
    4edc:	e5007fd0 	.word	0xe5007fd0

00004ee0 <io_put_char>:
    4ee0:	b570      	push	{r4, r5, r6, lr}
    4ee2:	000d      	movs	r5, r1
    4ee4:	2803      	cmp	r0, #3
    4ee6:	d907      	bls.n	4ef8 <io_put_char+0x18>
    4ee8:	4932      	ldr	r1, [pc, #200]	; (4fb4 <io_put_char+0xd4>)
    4eea:	680a      	ldr	r2, [r1, #0]
    4eec:	1c53      	adds	r3, r2, #1
    4eee:	5485      	strb	r5, [r0, r2]
    4ef0:	2200      	movs	r2, #0
    4ef2:	600b      	str	r3, [r1, #0]
    4ef4:	54c2      	strb	r2, [r0, r3]
    4ef6:	e05c      	b.n	4fb2 <io_put_char+0xd2>
    4ef8:	2800      	cmp	r0, #0
    4efa:	d136      	bne.n	4f6a <io_put_char+0x8a>
    4efc:	4e2e      	ldr	r6, [pc, #184]	; (4fb8 <io_put_char+0xd8>)
    4efe:	6833      	ldr	r3, [r6, #0]
    4f00:	2b00      	cmp	r3, #0
    4f02:	d11c      	bne.n	4f3e <io_put_char+0x5e>
    4f04:	2192      	movs	r1, #146	; 0x92
    4f06:	0049      	lsls	r1, r1, #1
    4f08:	3001      	adds	r0, #1
    4f0a:	f7ff ff35 	bl	4d78 <sark_alloc>
    4f0e:	1e04      	subs	r4, r0, #0
    4f10:	d102      	bne.n	4f18 <io_put_char+0x38>
    4f12:	200e      	movs	r0, #14
    4f14:	f7fb e90a 	blx	12c <rt_error>
    4f18:	2307      	movs	r3, #7
    4f1a:	7223      	strb	r3, [r4, #8]
    4f1c:	2300      	movs	r3, #0
    4f1e:	7263      	strb	r3, [r4, #9]
    4f20:	33ff      	adds	r3, #255	; 0xff
    4f22:	72a3      	strb	r3, [r4, #10]
    4f24:	4b25      	ldr	r3, [pc, #148]	; (4fbc <io_put_char+0xdc>)
    4f26:	889a      	ldrh	r2, [r3, #4]
    4f28:	81a2      	strh	r2, [r4, #12]
    4f2a:	4a25      	ldr	r2, [pc, #148]	; (4fc0 <io_put_char+0xe0>)
    4f2c:	6812      	ldr	r2, [r2, #0]
    4f2e:	72e2      	strb	r2, [r4, #11]
    4f30:	881b      	ldrh	r3, [r3, #0]
    4f32:	81e3      	strh	r3, [r4, #14]
    4f34:	2340      	movs	r3, #64	; 0x40
    4f36:	8223      	strh	r3, [r4, #16]
    4f38:	3b34      	subs	r3, #52	; 0x34
    4f3a:	80a3      	strh	r3, [r4, #4]
    4f3c:	6034      	str	r4, [r6, #0]
    4f3e:	6830      	ldr	r0, [r6, #0]
    4f40:	8883      	ldrh	r3, [r0, #4]
    4f42:	1c5a      	adds	r2, r3, #1
    4f44:	18c3      	adds	r3, r0, r3
    4f46:	8082      	strh	r2, [r0, #4]
    4f48:	721d      	strb	r5, [r3, #8]
    4f4a:	2d0a      	cmp	r5, #10
    4f4c:	d006      	beq.n	4f5c <io_put_char+0x7c>
    4f4e:	2d00      	cmp	r5, #0
    4f50:	d004      	beq.n	4f5c <io_put_char+0x7c>
    4f52:	8882      	ldrh	r2, [r0, #4]
    4f54:	2386      	movs	r3, #134	; 0x86
    4f56:	005b      	lsls	r3, r3, #1
    4f58:	429a      	cmp	r2, r3
    4f5a:	d12a      	bne.n	4fb2 <io_put_char+0xd2>
    4f5c:	210a      	movs	r1, #10
    4f5e:	f7ff fc3b 	bl	47d8 <sark_msg_send>
    4f62:	6833      	ldr	r3, [r6, #0]
    4f64:	220c      	movs	r2, #12
    4f66:	809a      	strh	r2, [r3, #4]
    4f68:	e023      	b.n	4fb2 <io_put_char+0xd2>
    4f6a:	2802      	cmp	r0, #2
    4f6c:	d121      	bne.n	4fb2 <io_put_char+0xd2>
    4f6e:	4c15      	ldr	r4, [pc, #84]	; (4fc4 <io_put_char+0xe4>)
    4f70:	6823      	ldr	r3, [r4, #0]
    4f72:	2b00      	cmp	r3, #0
    4f74:	d105      	bne.n	4f82 <io_put_char+0xa2>
    4f76:	4b12      	ldr	r3, [pc, #72]	; (4fc0 <io_put_char+0xe0>)
    4f78:	69de      	ldr	r6, [r3, #28]
    4f7a:	f7ff ff6d 	bl	4e58 <io_buf_init>
    4f7e:	65b0      	str	r0, [r6, #88]	; 0x58
    4f80:	6020      	str	r0, [r4, #0]
    4f82:	4911      	ldr	r1, [pc, #68]	; (4fc8 <io_put_char+0xe8>)
    4f84:	6826      	ldr	r6, [r4, #0]
    4f86:	680a      	ldr	r2, [r1, #0]
    4f88:	1c53      	adds	r3, r2, #1
    4f8a:	18b2      	adds	r2, r6, r2
    4f8c:	7415      	strb	r5, [r2, #16]
    4f8e:	4a0b      	ldr	r2, [pc, #44]	; (4fbc <io_put_char+0xdc>)
    4f90:	600b      	str	r3, [r1, #0]
    4f92:	6d12      	ldr	r2, [r2, #80]	; 0x50
    4f94:	4293      	cmp	r3, r2
    4f96:	d107      	bne.n	4fa8 <io_put_char+0xc8>
    4f98:	60f3      	str	r3, [r6, #12]
    4f9a:	f7ff ff5d 	bl	4e58 <io_buf_init>
    4f9e:	6823      	ldr	r3, [r4, #0]
    4fa0:	6030      	str	r0, [r6, #0]
    4fa2:	681b      	ldr	r3, [r3, #0]
    4fa4:	6023      	str	r3, [r4, #0]
    4fa6:	e004      	b.n	4fb2 <io_put_char+0xd2>
    4fa8:	2d0a      	cmp	r5, #10
    4faa:	d001      	beq.n	4fb0 <io_put_char+0xd0>
    4fac:	2d00      	cmp	r5, #0
    4fae:	d100      	bne.n	4fb2 <io_put_char+0xd2>
    4fb0:	60f3      	str	r3, [r6, #12]
    4fb2:	bd70      	pop	{r4, r5, r6, pc}
    4fb4:	00400214 	.word	0x00400214
    4fb8:	00400208 	.word	0x00400208
    4fbc:	e5007f00 	.word	0xe5007f00
    4fc0:	004005bc 	.word	0x004005bc
    4fc4:	0040020c 	.word	0x0040020c
    4fc8:	00400210 	.word	0x00400210

00004fcc <io_put_fixed>:
    4fcc:	b5f0      	push	{r4, r5, r6, r7, lr}
    4fce:	b08d      	sub	sp, #52	; 0x34
    4fd0:	0005      	movs	r5, r0
    4fd2:	9200      	str	r2, [sp, #0]
    4fd4:	2b0c      	cmp	r3, #12
    4fd6:	d900      	bls.n	4fda <io_put_fixed+0xe>
    4fd8:	230c      	movs	r3, #12
    4fda:	ae05      	add	r6, sp, #20
    4fdc:	001c      	movs	r4, r3
    4fde:	000a      	movs	r2, r1
    4fe0:	2000      	movs	r0, #0
    4fe2:	9601      	str	r6, [sp, #4]
    4fe4:	0412      	lsls	r2, r2, #16
    4fe6:	0c12      	lsrs	r2, r2, #16
    4fe8:	4298      	cmp	r0, r3
    4fea:	d00b      	beq.n	5004 <io_put_fixed+0x38>
    4fec:	260a      	movs	r6, #10
    4fee:	4356      	muls	r6, r2
    4ff0:	0032      	movs	r2, r6
    4ff2:	9e01      	ldr	r6, [sp, #4]
    4ff4:	3001      	adds	r0, #1
    4ff6:	1a36      	subs	r6, r6, r0
    4ff8:	46b4      	mov	ip, r6
    4ffa:	0c16      	lsrs	r6, r2, #16
    4ffc:	3630      	adds	r6, #48	; 0x30
    4ffe:	4667      	mov	r7, ip
    5000:	54fe      	strb	r6, [r7, r3]
    5002:	e7ef      	b.n	4fe4 <io_put_fixed+0x18>
    5004:	200a      	movs	r0, #10
    5006:	4342      	muls	r2, r0
    5008:	3806      	subs	r0, #6
    500a:	0c12      	lsrs	r2, r2, #16
    500c:	4290      	cmp	r0, r2
    500e:	4192      	sbcs	r2, r2
    5010:	4252      	negs	r2, r2
    5012:	2000      	movs	r0, #0
    5014:	2730      	movs	r7, #48	; 0x30
    5016:	ae05      	add	r6, sp, #20
    5018:	2a00      	cmp	r2, #0
    501a:	d00d      	beq.n	5038 <io_put_fixed+0x6c>
    501c:	4283      	cmp	r3, r0
    501e:	d00a      	beq.n	5036 <io_put_fixed+0x6a>
    5020:	5c32      	ldrb	r2, [r6, r0]
    5022:	2a38      	cmp	r2, #56	; 0x38
    5024:	d902      	bls.n	502c <io_put_fixed+0x60>
    5026:	5437      	strb	r7, [r6, r0]
    5028:	2201      	movs	r2, #1
    502a:	e002      	b.n	5032 <io_put_fixed+0x66>
    502c:	3201      	adds	r2, #1
    502e:	5432      	strb	r2, [r6, r0]
    5030:	2200      	movs	r2, #0
    5032:	3001      	adds	r0, #1
    5034:	e7ef      	b.n	5016 <io_put_fixed+0x4a>
    5036:	2201      	movs	r2, #1
    5038:	2b00      	cmp	r3, #0
    503a:	d002      	beq.n	5042 <io_put_fixed+0x76>
    503c:	202e      	movs	r0, #46	; 0x2e
    503e:	1c5c      	adds	r4, r3, #1
    5040:	54f0      	strb	r0, [r6, r3]
    5042:	0c09      	lsrs	r1, r1, #16
    5044:	1851      	adds	r1, r2, r1
    5046:	a803      	add	r0, sp, #12
    5048:	f7fb e942 	blx	2d0 <sark_div10>
    504c:	9b04      	ldr	r3, [sp, #16]
    504e:	9903      	ldr	r1, [sp, #12]
    5050:	3330      	adds	r3, #48	; 0x30
    5052:	1c67      	adds	r7, r4, #1
    5054:	5533      	strb	r3, [r6, r4]
    5056:	2900      	cmp	r1, #0
    5058:	d001      	beq.n	505e <io_put_fixed+0x92>
    505a:	003c      	movs	r4, r7
    505c:	e7f3      	b.n	5046 <io_put_fixed+0x7a>
    505e:	9b13      	ldr	r3, [sp, #76]	; 0x4c
    5060:	2b00      	cmp	r3, #0
    5062:	d002      	beq.n	506a <io_put_fixed+0x9e>
    5064:	232d      	movs	r3, #45	; 0x2d
    5066:	55f3      	strb	r3, [r6, r7]
    5068:	1ca7      	adds	r7, r4, #2
    506a:	9c00      	ldr	r4, [sp, #0]
    506c:	1c7b      	adds	r3, r7, #1
    506e:	42a3      	cmp	r3, r4
    5070:	d205      	bcs.n	507e <io_put_fixed+0xb2>
    5072:	9912      	ldr	r1, [sp, #72]	; 0x48
    5074:	0028      	movs	r0, r5
    5076:	f7ff ff33 	bl	4ee0 <io_put_char>
    507a:	3c01      	subs	r4, #1
    507c:	e7f6      	b.n	506c <io_put_fixed+0xa0>
    507e:	3f01      	subs	r7, #1
    5080:	5df1      	ldrb	r1, [r6, r7]
    5082:	0028      	movs	r0, r5
    5084:	f7ff ff2c 	bl	4ee0 <io_put_char>
    5088:	2f00      	cmp	r7, #0
    508a:	d1f8      	bne.n	507e <io_put_fixed+0xb2>
    508c:	b00d      	add	sp, #52	; 0x34
    508e:	bdf0      	pop	{r4, r5, r6, r7, pc}

00005090 <io_printf>:
    5090:	b40e      	push	{r1, r2, r3}
    5092:	b5f0      	push	{r4, r5, r6, r7, lr}
    5094:	0004      	movs	r4, r0
    5096:	b08c      	sub	sp, #48	; 0x30
    5098:	2803      	cmp	r0, #3
    509a:	d100      	bne.n	509e <io_printf+0xe>
    509c:	e140      	b.n	5320 <io_printf+0x290>
    509e:	d903      	bls.n	50a8 <io_printf+0x18>
    50a0:	4aa2      	ldr	r2, [pc, #648]	; (532c <io_printf+0x29c>)
    50a2:	2300      	movs	r3, #0
    50a4:	7003      	strb	r3, [r0, #0]
    50a6:	6013      	str	r3, [r2, #0]
    50a8:	ab12      	add	r3, sp, #72	; 0x48
    50aa:	9305      	str	r3, [sp, #20]
    50ac:	9b11      	ldr	r3, [sp, #68]	; 0x44
    50ae:	7819      	ldrb	r1, [r3, #0]
    50b0:	2900      	cmp	r1, #0
    50b2:	d100      	bne.n	50b6 <io_printf+0x26>
    50b4:	e134      	b.n	5320 <io_printf+0x290>
    50b6:	2925      	cmp	r1, #37	; 0x25
    50b8:	d002      	beq.n	50c0 <io_printf+0x30>
    50ba:	3301      	adds	r3, #1
    50bc:	9311      	str	r3, [sp, #68]	; 0x44
    50be:	e059      	b.n	5174 <io_printf+0xe4>
    50c0:	9b11      	ldr	r3, [sp, #68]	; 0x44
    50c2:	7859      	ldrb	r1, [r3, #1]
    50c4:	1c9a      	adds	r2, r3, #2
    50c6:	2900      	cmp	r1, #0
    50c8:	d100      	bne.n	50cc <io_printf+0x3c>
    50ca:	e129      	b.n	5320 <io_printf+0x290>
    50cc:	2320      	movs	r3, #32
    50ce:	9303      	str	r3, [sp, #12]
    50d0:	2930      	cmp	r1, #48	; 0x30
    50d2:	d100      	bne.n	50d6 <io_printf+0x46>
    50d4:	9103      	str	r1, [sp, #12]
    50d6:	2500      	movs	r5, #0
    50d8:	000b      	movs	r3, r1
    50da:	3b30      	subs	r3, #48	; 0x30
    50dc:	9211      	str	r2, [sp, #68]	; 0x44
    50de:	2b09      	cmp	r3, #9
    50e0:	d80a      	bhi.n	50f8 <io_printf+0x68>
    50e2:	230a      	movs	r3, #10
    50e4:	436b      	muls	r3, r5
    50e6:	3201      	adds	r2, #1
    50e8:	1859      	adds	r1, r3, r1
    50ea:	3930      	subs	r1, #48	; 0x30
    50ec:	1e53      	subs	r3, r2, #1
    50ee:	000d      	movs	r5, r1
    50f0:	7819      	ldrb	r1, [r3, #0]
    50f2:	2900      	cmp	r1, #0
    50f4:	d1f0      	bne.n	50d8 <io_printf+0x48>
    50f6:	e113      	b.n	5320 <io_printf+0x290>
    50f8:	2306      	movs	r3, #6
    50fa:	292e      	cmp	r1, #46	; 0x2e
    50fc:	d112      	bne.n	5124 <io_printf+0x94>
    50fe:	7811      	ldrb	r1, [r2, #0]
    5100:	2300      	movs	r3, #0
    5102:	3201      	adds	r2, #1
    5104:	0008      	movs	r0, r1
    5106:	3830      	subs	r0, #48	; 0x30
    5108:	9211      	str	r2, [sp, #68]	; 0x44
    510a:	2809      	cmp	r0, #9
    510c:	d807      	bhi.n	511e <io_printf+0x8e>
    510e:	200a      	movs	r0, #10
    5110:	4358      	muls	r0, r3
    5112:	1841      	adds	r1, r0, r1
    5114:	000b      	movs	r3, r1
    5116:	3b30      	subs	r3, #48	; 0x30
    5118:	7811      	ldrb	r1, [r2, #0]
    511a:	3201      	adds	r2, #1
    511c:	e7f2      	b.n	5104 <io_printf+0x74>
    511e:	2900      	cmp	r1, #0
    5120:	d100      	bne.n	5124 <io_printf+0x94>
    5122:	e0fd      	b.n	5320 <io_printf+0x290>
    5124:	296b      	cmp	r1, #107	; 0x6b
    5126:	d100      	bne.n	512a <io_printf+0x9a>
    5128:	e0aa      	b.n	5280 <io_printf+0x1f0>
    512a:	d80f      	bhi.n	514c <io_printf+0xbc>
    512c:	2963      	cmp	r1, #99	; 0x63
    512e:	d01d      	beq.n	516c <io_printf+0xdc>
    5130:	d806      	bhi.n	5140 <io_printf+0xb0>
    5132:	294b      	cmp	r1, #75	; 0x4b
    5134:	d100      	bne.n	5138 <io_printf+0xa8>
    5136:	e099      	b.n	526c <io_printf+0x1dc>
    5138:	2952      	cmp	r1, #82	; 0x52
    513a:	d100      	bne.n	513e <io_printf+0xae>
    513c:	e096      	b.n	526c <io_printf+0x1dc>
    513e:	e019      	b.n	5174 <io_printf+0xe4>
    5140:	2964      	cmp	r1, #100	; 0x64
    5142:	d037      	beq.n	51b4 <io_printf+0x124>
    5144:	2966      	cmp	r1, #102	; 0x66
    5146:	d100      	bne.n	514a <io_printf+0xba>
    5148:	e090      	b.n	526c <io_printf+0x1dc>
    514a:	e013      	b.n	5174 <io_printf+0xe4>
    514c:	2975      	cmp	r1, #117	; 0x75
    514e:	d066      	beq.n	521e <io_printf+0x18e>
    5150:	d805      	bhi.n	515e <io_printf+0xce>
    5152:	2972      	cmp	r1, #114	; 0x72
    5154:	d100      	bne.n	5158 <io_printf+0xc8>
    5156:	e093      	b.n	5280 <io_printf+0x1f0>
    5158:	2973      	cmp	r1, #115	; 0x73
    515a:	d00f      	beq.n	517c <io_printf+0xec>
    515c:	e00a      	b.n	5174 <io_printf+0xe4>
    515e:	2978      	cmp	r1, #120	; 0x78
    5160:	d100      	bne.n	5164 <io_printf+0xd4>
    5162:	e09e      	b.n	52a2 <io_printf+0x212>
    5164:	297a      	cmp	r1, #122	; 0x7a
    5166:	d100      	bne.n	516a <io_printf+0xda>
    5168:	e0c2      	b.n	52f0 <io_printf+0x260>
    516a:	e003      	b.n	5174 <io_printf+0xe4>
    516c:	9b05      	ldr	r3, [sp, #20]
    516e:	6819      	ldr	r1, [r3, #0]
    5170:	1d1a      	adds	r2, r3, #4
    5172:	9205      	str	r2, [sp, #20]
    5174:	0020      	movs	r0, r4
    5176:	f7ff feb3 	bl	4ee0 <io_put_char>
    517a:	e797      	b.n	50ac <io_printf+0x1c>
    517c:	9b05      	ldr	r3, [sp, #20]
    517e:	681e      	ldr	r6, [r3, #0]
    5180:	1d1a      	adds	r2, r3, #4
    5182:	0033      	movs	r3, r6
    5184:	9205      	str	r2, [sp, #20]
    5186:	1b9f      	subs	r7, r3, r6
    5188:	3301      	adds	r3, #1
    518a:	1e5a      	subs	r2, r3, #1
    518c:	7812      	ldrb	r2, [r2, #0]
    518e:	2a00      	cmp	r2, #0
    5190:	d1f9      	bne.n	5186 <io_printf+0xf6>
    5192:	42bd      	cmp	r5, r7
    5194:	dd05      	ble.n	51a2 <io_printf+0x112>
    5196:	2120      	movs	r1, #32
    5198:	0020      	movs	r0, r4
    519a:	f7ff fea1 	bl	4ee0 <io_put_char>
    519e:	3d01      	subs	r5, #1
    51a0:	e7f7      	b.n	5192 <io_printf+0x102>
    51a2:	7831      	ldrb	r1, [r6, #0]
    51a4:	2900      	cmp	r1, #0
    51a6:	d100      	bne.n	51aa <io_printf+0x11a>
    51a8:	e780      	b.n	50ac <io_printf+0x1c>
    51aa:	0020      	movs	r0, r4
    51ac:	3601      	adds	r6, #1
    51ae:	f7ff fe97 	bl	4ee0 <io_put_char>
    51b2:	e7f6      	b.n	51a2 <io_printf+0x112>
    51b4:	9b05      	ldr	r3, [sp, #20]
    51b6:	6819      	ldr	r1, [r3, #0]
    51b8:	1d1a      	adds	r2, r3, #4
    51ba:	2300      	movs	r3, #0
    51bc:	9205      	str	r2, [sp, #20]
    51be:	9303      	str	r3, [sp, #12]
    51c0:	4299      	cmp	r1, r3
    51c2:	da02      	bge.n	51ca <io_printf+0x13a>
    51c4:	332d      	adds	r3, #45	; 0x2d
    51c6:	4249      	negs	r1, r1
    51c8:	9303      	str	r3, [sp, #12]
    51ca:	2600      	movs	r6, #0
    51cc:	a806      	add	r0, sp, #24
    51ce:	f7fb e880 	blx	2d0 <sark_div10>
    51d2:	9b07      	ldr	r3, [sp, #28]
    51d4:	3601      	adds	r6, #1
    51d6:	9906      	ldr	r1, [sp, #24]
    51d8:	af08      	add	r7, sp, #32
    51da:	1e72      	subs	r2, r6, #1
    51dc:	3330      	adds	r3, #48	; 0x30
    51de:	54bb      	strb	r3, [r7, r2]
    51e0:	2900      	cmp	r1, #0
    51e2:	d1f3      	bne.n	51cc <io_printf+0x13c>
    51e4:	3e01      	subs	r6, #1
    51e6:	5dbb      	ldrb	r3, [r7, r6]
    51e8:	2b30      	cmp	r3, #48	; 0x30
    51ea:	d101      	bne.n	51f0 <io_printf+0x160>
    51ec:	2e00      	cmp	r6, #0
    51ee:	d1f9      	bne.n	51e4 <io_printf+0x154>
    51f0:	9b03      	ldr	r3, [sp, #12]
    51f2:	2b00      	cmp	r3, #0
    51f4:	d003      	beq.n	51fe <io_printf+0x16e>
    51f6:	466b      	mov	r3, sp
    51f8:	3601      	adds	r6, #1
    51fa:	7b1b      	ldrb	r3, [r3, #12]
    51fc:	55bb      	strb	r3, [r7, r6]
    51fe:	1c73      	adds	r3, r6, #1
    5200:	42ab      	cmp	r3, r5
    5202:	d205      	bcs.n	5210 <io_printf+0x180>
    5204:	2120      	movs	r1, #32
    5206:	0020      	movs	r0, r4
    5208:	f7ff fe6a 	bl	4ee0 <io_put_char>
    520c:	3d01      	subs	r5, #1
    520e:	e7f6      	b.n	51fe <io_printf+0x16e>
    5210:	5db9      	ldrb	r1, [r7, r6]
    5212:	0020      	movs	r0, r4
    5214:	f7ff fe64 	bl	4ee0 <io_put_char>
    5218:	3e01      	subs	r6, #1
    521a:	d2f9      	bcs.n	5210 <io_printf+0x180>
    521c:	e746      	b.n	50ac <io_printf+0x1c>
    521e:	9b05      	ldr	r3, [sp, #20]
    5220:	2600      	movs	r6, #0
    5222:	6819      	ldr	r1, [r3, #0]
    5224:	1d1a      	adds	r2, r3, #4
    5226:	9205      	str	r2, [sp, #20]
    5228:	a806      	add	r0, sp, #24
    522a:	f7fb e852 	blx	2d0 <sark_div10>
    522e:	9b07      	ldr	r3, [sp, #28]
    5230:	3601      	adds	r6, #1
    5232:	9906      	ldr	r1, [sp, #24]
    5234:	af08      	add	r7, sp, #32
    5236:	1e72      	subs	r2, r6, #1
    5238:	3330      	adds	r3, #48	; 0x30
    523a:	54bb      	strb	r3, [r7, r2]
    523c:	2900      	cmp	r1, #0
    523e:	d1f3      	bne.n	5228 <io_printf+0x198>
    5240:	3e01      	subs	r6, #1
    5242:	5dbb      	ldrb	r3, [r7, r6]
    5244:	2b30      	cmp	r3, #48	; 0x30
    5246:	d101      	bne.n	524c <io_printf+0x1bc>
    5248:	2e00      	cmp	r6, #0
    524a:	d1f9      	bne.n	5240 <io_printf+0x1b0>
    524c:	1c73      	adds	r3, r6, #1
    524e:	42ab      	cmp	r3, r5
    5250:	d205      	bcs.n	525e <io_printf+0x1ce>
    5252:	9903      	ldr	r1, [sp, #12]
    5254:	0020      	movs	r0, r4
    5256:	f7ff fe43 	bl	4ee0 <io_put_char>
    525a:	3d01      	subs	r5, #1
    525c:	e7f6      	b.n	524c <io_printf+0x1bc>
    525e:	5db9      	ldrb	r1, [r7, r6]
    5260:	0020      	movs	r0, r4
    5262:	f7ff fe3d 	bl	4ee0 <io_put_char>
    5266:	3e01      	subs	r6, #1
    5268:	d2f9      	bcs.n	525e <io_printf+0x1ce>
    526a:	e71f      	b.n	50ac <io_printf+0x1c>
    526c:	9905      	ldr	r1, [sp, #20]
    526e:	1d0a      	adds	r2, r1, #4
    5270:	9205      	str	r2, [sp, #20]
    5272:	2200      	movs	r2, #0
    5274:	9201      	str	r2, [sp, #4]
    5276:	9a03      	ldr	r2, [sp, #12]
    5278:	9200      	str	r2, [sp, #0]
    527a:	002a      	movs	r2, r5
    527c:	6809      	ldr	r1, [r1, #0]
    527e:	e00c      	b.n	529a <io_printf+0x20a>
    5280:	9a05      	ldr	r2, [sp, #20]
    5282:	1d11      	adds	r1, r2, #4
    5284:	6812      	ldr	r2, [r2, #0]
    5286:	9105      	str	r1, [sp, #20]
    5288:	17d0      	asrs	r0, r2, #31
    528a:	1811      	adds	r1, r2, r0
    528c:	0fd2      	lsrs	r2, r2, #31
    528e:	4041      	eors	r1, r0
    5290:	9201      	str	r2, [sp, #4]
    5292:	9a03      	ldr	r2, [sp, #12]
    5294:	9200      	str	r2, [sp, #0]
    5296:	0049      	lsls	r1, r1, #1
    5298:	002a      	movs	r2, r5
    529a:	0020      	movs	r0, r4
    529c:	f7ff fe96 	bl	4fcc <io_put_fixed>
    52a0:	e704      	b.n	50ac <io_printf+0x1c>
    52a2:	9b05      	ldr	r3, [sp, #20]
    52a4:	4822      	ldr	r0, [pc, #136]	; (5330 <io_printf+0x2a0>)
    52a6:	1d1a      	adds	r2, r3, #4
    52a8:	9205      	str	r2, [sp, #20]
    52aa:	681b      	ldr	r3, [r3, #0]
    52ac:	220f      	movs	r2, #15
    52ae:	2600      	movs	r6, #0
    52b0:	af08      	add	r7, sp, #32
    52b2:	4694      	mov	ip, r2
    52b4:	4661      	mov	r1, ip
    52b6:	4019      	ands	r1, r3
    52b8:	3601      	adds	r6, #1
    52ba:	1e72      	subs	r2, r6, #1
    52bc:	5c41      	ldrb	r1, [r0, r1]
    52be:	54b9      	strb	r1, [r7, r2]
    52c0:	091b      	lsrs	r3, r3, #4
    52c2:	d1f7      	bne.n	52b4 <io_printf+0x224>
    52c4:	3e01      	subs	r6, #1
    52c6:	5dbb      	ldrb	r3, [r7, r6]
    52c8:	2b30      	cmp	r3, #48	; 0x30
    52ca:	d101      	bne.n	52d0 <io_printf+0x240>
    52cc:	2e00      	cmp	r6, #0
    52ce:	d1f9      	bne.n	52c4 <io_printf+0x234>
    52d0:	1c73      	adds	r3, r6, #1
    52d2:	42ab      	cmp	r3, r5
    52d4:	d205      	bcs.n	52e2 <io_printf+0x252>
    52d6:	9903      	ldr	r1, [sp, #12]
    52d8:	0020      	movs	r0, r4
    52da:	f7ff fe01 	bl	4ee0 <io_put_char>
    52de:	3d01      	subs	r5, #1
    52e0:	e7f6      	b.n	52d0 <io_printf+0x240>
    52e2:	5db9      	ldrb	r1, [r7, r6]
    52e4:	0020      	movs	r0, r4
    52e6:	f7ff fdfb 	bl	4ee0 <io_put_char>
    52ea:	3e01      	subs	r6, #1
    52ec:	d2f9      	bcs.n	52e2 <io_printf+0x252>
    52ee:	e6dd      	b.n	50ac <io_printf+0x1c>
    52f0:	9b05      	ldr	r3, [sp, #20]
    52f2:	1e6e      	subs	r6, r5, #1
    52f4:	1d1a      	adds	r2, r3, #4
    52f6:	681b      	ldr	r3, [r3, #0]
    52f8:	9303      	str	r3, [sp, #12]
    52fa:	4b0e      	ldr	r3, [pc, #56]	; (5334 <io_printf+0x2a4>)
    52fc:	270f      	movs	r7, #15
    52fe:	18ed      	adds	r5, r5, r3
    5300:	00ad      	lsls	r5, r5, #2
    5302:	9205      	str	r2, [sp, #20]
    5304:	2e00      	cmp	r6, #0
    5306:	da00      	bge.n	530a <io_printf+0x27a>
    5308:	e6d0      	b.n	50ac <io_printf+0x1c>
    530a:	9b03      	ldr	r3, [sp, #12]
    530c:	4a08      	ldr	r2, [pc, #32]	; (5330 <io_printf+0x2a0>)
    530e:	40eb      	lsrs	r3, r5
    5310:	403b      	ands	r3, r7
    5312:	5cd1      	ldrb	r1, [r2, r3]
    5314:	0020      	movs	r0, r4
    5316:	f7ff fde3 	bl	4ee0 <io_put_char>
    531a:	3e01      	subs	r6, #1
    531c:	3d04      	subs	r5, #4
    531e:	e7f1      	b.n	5304 <io_printf+0x274>
    5320:	b00c      	add	sp, #48	; 0x30
    5322:	bcf0      	pop	{r4, r5, r6, r7}
    5324:	bc08      	pop	{r3}
    5326:	b003      	add	sp, #12
    5328:	4718      	bx	r3
    532a:	46c0      	nop			; (mov r8, r8)
    532c:	00400214 	.word	0x00400214
    5330:	00007358 	.word	0x00007358
    5334:	3fffffff 	.word	0x3fffffff

00005338 <__aeabi_ldiv0>:
    5338:	e3a0000b 	mov	r0, #11
    533c:	eaffeb7a 	b	12c <rt_error>

00005340 <__aeabi_idiv0>:
    5340:	eafffffc 	b	5338 <__aeabi_ldiv0>

00005344 <spin1_msg_free>:
    5344:	b510      	push	{r4, lr}
    5346:	f7ff f95d 	bl	4604 <sark_msg_free>
    534a:	bd10      	pop	{r4, pc}

0000534c <spin1_send_sdp_msg>:
    534c:	b510      	push	{r4, lr}
    534e:	f7ff fa43 	bl	47d8 <sark_msg_send>
    5352:	bd10      	pop	{r4, pc}

00005354 <configure_dma_controller>:
    5354:	4b06      	ldr	r3, [pc, #24]	; (5370 <configure_dma_controller+0x1c>)
    5356:	223f      	movs	r2, #63	; 0x3f
    5358:	601a      	str	r2, [r3, #0]
    535a:	3a32      	subs	r2, #50	; 0x32
    535c:	601a      	str	r2, [r3, #0]
    535e:	4b05      	ldr	r3, [pc, #20]	; (5374 <configure_dma_controller+0x20>)
    5360:	22c0      	movs	r2, #192	; 0xc0
    5362:	0112      	lsls	r2, r2, #4
    5364:	601a      	str	r2, [r3, #0]
    5366:	4b04      	ldr	r3, [pc, #16]	; (5378 <configure_dma_controller+0x24>)
    5368:	2203      	movs	r2, #3
    536a:	601a      	str	r2, [r3, #0]
    536c:	4770      	bx	lr
    536e:	46c0      	nop			; (mov r8, r8)
    5370:	40000010 	.word	0x40000010
    5374:	40000018 	.word	0x40000018
    5378:	40000028 	.word	0x40000028

0000537c <configure_timer1>:
    537c:	4b08      	ldr	r3, [pc, #32]	; (53a0 <configure_timer1+0x24>)
    537e:	2200      	movs	r2, #0
    5380:	601a      	str	r2, [r3, #0]
    5382:	4b08      	ldr	r3, [pc, #32]	; (53a4 <configure_timer1+0x28>)
    5384:	3201      	adds	r2, #1
    5386:	601a      	str	r2, [r3, #0]
    5388:	4b07      	ldr	r3, [pc, #28]	; (53a8 <configure_timer1+0x2c>)
    538a:	1841      	adds	r1, r0, r1
    538c:	8c9b      	ldrh	r3, [r3, #36]	; 0x24
    538e:	2284      	movs	r2, #132	; 0x84
    5390:	4359      	muls	r1, r3
    5392:	0592      	lsls	r2, r2, #22
    5394:	4343      	muls	r3, r0
    5396:	6011      	str	r1, [r2, #0]
    5398:	4a04      	ldr	r2, [pc, #16]	; (53ac <configure_timer1+0x30>)
    539a:	6013      	str	r3, [r2, #0]
    539c:	4770      	bx	lr
    539e:	46c0      	nop			; (mov r8, r8)
    53a0:	21000008 	.word	0x21000008
    53a4:	2100000c 	.word	0x2100000c
    53a8:	e5007f00 	.word	0xe5007f00
    53ac:	21000018 	.word	0x21000018

000053b0 <configure_vic>:
    53b0:	4b36      	ldr	r3, [pc, #216]	; (548c <configure_vic+0xdc>)
    53b2:	4a37      	ldr	r2, [pc, #220]	; (5490 <configure_vic+0xe0>)
    53b4:	b530      	push	{r4, r5, lr}
    53b6:	601a      	str	r2, [r3, #0]
    53b8:	4a36      	ldr	r2, [pc, #216]	; (5494 <configure_vic+0xe4>)
    53ba:	2320      	movs	r3, #32
    53bc:	69d9      	ldr	r1, [r3, #28]
    53be:	6011      	str	r1, [r2, #0]
    53c0:	4935      	ldr	r1, [pc, #212]	; (5498 <configure_vic+0xe8>)
    53c2:	4a36      	ldr	r2, [pc, #216]	; (549c <configure_vic+0xec>)
    53c4:	0004      	movs	r4, r0
    53c6:	6808      	ldr	r0, [r1, #0]
    53c8:	6010      	str	r0, [r2, #0]
    53ca:	4a35      	ldr	r2, [pc, #212]	; (54a0 <configure_vic+0xf0>)
    53cc:	4835      	ldr	r0, [pc, #212]	; (54a4 <configure_vic+0xf4>)
    53ce:	6815      	ldr	r5, [r2, #0]
    53d0:	6005      	str	r5, [r0, #0]
    53d2:	4835      	ldr	r0, [pc, #212]	; (54a8 <configure_vic+0xf8>)
    53d4:	6800      	ldr	r0, [r0, #0]
    53d6:	2807      	cmp	r0, #7
    53d8:	d81c      	bhi.n	5414 <configure_vic+0x64>
    53da:	f7fa ffc3 	bl	364 <__gnu_thumb1_case_uqi>
    53de:	0e04      	.short	0x0e04
    53e0:	04171b13 	.word	0x04171b13
    53e4:	0909      	.short	0x0909
    53e6:	4831      	ldr	r0, [pc, #196]	; (54ac <configure_vic+0xfc>)
    53e8:	61d8      	str	r0, [r3, #28]
    53ea:	2080      	movs	r0, #128	; 0x80
    53ec:	0440      	lsls	r0, r0, #17
    53ee:	e012      	b.n	5416 <configure_vic+0x66>
    53f0:	482f      	ldr	r0, [pc, #188]	; (54b0 <configure_vic+0x100>)
    53f2:	61d8      	str	r0, [r3, #28]
    53f4:	2080      	movs	r0, #128	; 0x80
    53f6:	0500      	lsls	r0, r0, #20
    53f8:	e00d      	b.n	5416 <configure_vic+0x66>
    53fa:	482e      	ldr	r0, [pc, #184]	; (54b4 <configure_vic+0x104>)
    53fc:	61d8      	str	r0, [r3, #28]
    53fe:	2080      	movs	r0, #128	; 0x80
    5400:	0140      	lsls	r0, r0, #5
    5402:	e008      	b.n	5416 <configure_vic+0x66>
    5404:	482c      	ldr	r0, [pc, #176]	; (54b8 <configure_vic+0x108>)
    5406:	61d8      	str	r0, [r3, #28]
    5408:	2010      	movs	r0, #16
    540a:	e004      	b.n	5416 <configure_vic+0x66>
    540c:	482b      	ldr	r0, [pc, #172]	; (54bc <configure_vic+0x10c>)
    540e:	61d8      	str	r0, [r3, #28]
    5410:	2002      	movs	r0, #2
    5412:	e000      	b.n	5416 <configure_vic+0x66>
    5414:	2000      	movs	r0, #0
    5416:	2359      	movs	r3, #89	; 0x59
    5418:	781b      	ldrb	r3, [r3, #0]
    541a:	4d29      	ldr	r5, [pc, #164]	; (54c0 <configure_vic+0x110>)
    541c:	009b      	lsls	r3, r3, #2
    541e:	195b      	adds	r3, r3, r5
    5420:	2500      	movs	r5, #0
    5422:	601d      	str	r5, [r3, #0]
    5424:	4b27      	ldr	r3, [pc, #156]	; (54c4 <configure_vic+0x114>)
    5426:	4d28      	ldr	r5, [pc, #160]	; (54c8 <configure_vic+0x118>)
    5428:	601d      	str	r5, [r3, #0]
    542a:	4b25      	ldr	r3, [pc, #148]	; (54c0 <configure_vic+0x110>)
    542c:	2532      	movs	r5, #50	; 0x32
    542e:	601d      	str	r5, [r3, #0]
    5430:	4b26      	ldr	r3, [pc, #152]	; (54cc <configure_vic+0x11c>)
    5432:	4d27      	ldr	r5, [pc, #156]	; (54d0 <configure_vic+0x120>)
    5434:	601d      	str	r5, [r3, #0]
    5436:	4b27      	ldr	r3, [pc, #156]	; (54d4 <configure_vic+0x124>)
    5438:	2538      	movs	r5, #56	; 0x38
    543a:	601d      	str	r5, [r3, #0]
    543c:	4b26      	ldr	r3, [pc, #152]	; (54d8 <configure_vic+0x128>)
    543e:	4d27      	ldr	r5, [pc, #156]	; (54dc <configure_vic+0x12c>)
    5440:	601d      	str	r5, [r3, #0]
    5442:	4b27      	ldr	r3, [pc, #156]	; (54e0 <configure_vic+0x130>)
    5444:	253b      	movs	r5, #59	; 0x3b
    5446:	601d      	str	r5, [r3, #0]
    5448:	4b26      	ldr	r3, [pc, #152]	; (54e4 <configure_vic+0x134>)
    544a:	4d27      	ldr	r5, [pc, #156]	; (54e8 <configure_vic+0x138>)
    544c:	601d      	str	r5, [r3, #0]
    544e:	4b27      	ldr	r3, [pc, #156]	; (54ec <configure_vic+0x13c>)
    5450:	252c      	movs	r5, #44	; 0x2c
    5452:	601d      	str	r5, [r3, #0]
    5454:	4b26      	ldr	r3, [pc, #152]	; (54f0 <configure_vic+0x140>)
    5456:	4d27      	ldr	r5, [pc, #156]	; (54f4 <configure_vic+0x144>)
    5458:	601d      	str	r5, [r3, #0]
    545a:	4b27      	ldr	r3, [pc, #156]	; (54f8 <configure_vic+0x148>)
    545c:	2524      	movs	r5, #36	; 0x24
    545e:	601d      	str	r5, [r3, #0]
    5460:	4b26      	ldr	r3, [pc, #152]	; (54fc <configure_vic+0x14c>)
    5462:	4d27      	ldr	r5, [pc, #156]	; (5500 <configure_vic+0x150>)
    5464:	601d      	str	r5, [r3, #0]
    5466:	4b27      	ldr	r3, [pc, #156]	; (5504 <configure_vic+0x154>)
    5468:	252b      	movs	r5, #43	; 0x2b
    546a:	601d      	str	r5, [r3, #0]
    546c:	4b26      	ldr	r3, [pc, #152]	; (5508 <configure_vic+0x158>)
    546e:	4d27      	ldr	r5, [pc, #156]	; (550c <configure_vic+0x15c>)
    5470:	601d      	str	r5, [r3, #0]
    5472:	4b27      	ldr	r3, [pc, #156]	; (5510 <configure_vic+0x160>)
    5474:	2521      	movs	r5, #33	; 0x21
    5476:	601d      	str	r5, [r3, #0]
    5478:	6008      	str	r0, [r1, #0]
    547a:	2c00      	cmp	r4, #0
    547c:	d101      	bne.n	5482 <configure_vic+0xd2>
    547e:	4925      	ldr	r1, [pc, #148]	; (5514 <configure_vic+0x164>)
    5480:	e000      	b.n	5484 <configure_vic+0xd4>
    5482:	4903      	ldr	r1, [pc, #12]	; (5490 <configure_vic+0xe0>)
    5484:	4b24      	ldr	r3, [pc, #144]	; (5518 <configure_vic+0x168>)
    5486:	400b      	ands	r3, r1
    5488:	6013      	str	r3, [r2, #0]
    548a:	bd30      	pop	{r4, r5, pc}
    548c:	1f000014 	.word	0x1f000014
    5490:	09003012 	.word	0x09003012
    5494:	00400690 	.word	0x00400690
    5498:	1f00000c 	.word	0x1f00000c
    549c:	00400830 	.word	0x00400830
    54a0:	1f000010 	.word	0x1f000010
    54a4:	004006dc 	.word	0x004006dc
    54a8:	00400010 	.word	0x00400010
    54ac:	00005cec 	.word	0x00005cec
    54b0:	00005d98 	.word	0x00005d98
    54b4:	00005ee8 	.word	0x00005ee8
    54b8:	00005fe8 	.word	0x00005fe8
    54bc:	00006090 	.word	0x00006090
    54c0:	2f000200 	.word	0x2f000200
    54c4:	2f000100 	.word	0x2f000100
    54c8:	00000300 	.word	0x00000300
    54cc:	2f00010c 	.word	0x2f00010c
    54d0:	00005c74 	.word	0x00005c74
    54d4:	2f00020c 	.word	0x2f00020c
    54d8:	2f000110 	.word	0x2f000110
    54dc:	00005d24 	.word	0x00005d24
    54e0:	2f000210 	.word	0x2f000210
    54e4:	2f000108 	.word	0x2f000108
    54e8:	00005e58 	.word	0x00005e58
    54ec:	2f000208 	.word	0x2f000208
    54f0:	2f000104 	.word	0x2f000104
    54f4:	00005f60 	.word	0x00005f60
    54f8:	2f000204 	.word	0x2f000204
    54fc:	2f000114 	.word	0x2f000114
    5500:	00005dd0 	.word	0x00005dd0
    5504:	2f000214 	.word	0x2f000214
    5508:	2f000118 	.word	0x2f000118
    550c:	00006028 	.word	0x00006028
    5510:	2f000218 	.word	0x2f000218
    5514:	09003002 	.word	0x09003002
    5518:	ffffdfff 	.word	0xffffdfff

0000551c <spin1_pause>:
    551c:	4b08      	ldr	r3, [pc, #32]	; (5540 <spin1_pause+0x24>)
    551e:	2210      	movs	r2, #16
    5520:	b510      	push	{r4, lr}
    5522:	601a      	str	r2, [r3, #0]
    5524:	4b07      	ldr	r3, [pc, #28]	; (5544 <spin1_pause+0x28>)
    5526:	6819      	ldr	r1, [r3, #0]
    5528:	4b07      	ldr	r3, [pc, #28]	; (5548 <spin1_pause+0x2c>)
    552a:	6818      	ldr	r0, [r3, #0]
    552c:	f7ff ff26 	bl	537c <configure_timer1>
    5530:	200a      	movs	r0, #10
    5532:	f7ff f82d 	bl	4590 <sark_cpu_state>
    5536:	4b05      	ldr	r3, [pc, #20]	; (554c <spin1_pause+0x30>)
    5538:	2201      	movs	r2, #1
    553a:	601a      	str	r2, [r3, #0]
    553c:	bd10      	pop	{r4, pc}
    553e:	46c0      	nop			; (mov r8, r8)
    5540:	1f000014 	.word	0x1f000014
    5544:	00400218 	.word	0x00400218
    5548:	00400220 	.word	0x00400220
    554c:	00400224 	.word	0x00400224

00005550 <resume>:
    5550:	4b0b      	ldr	r3, [pc, #44]	; (5580 <resume+0x30>)
    5552:	b510      	push	{r4, lr}
    5554:	6819      	ldr	r1, [r3, #0]
    5556:	2901      	cmp	r1, #1
    5558:	d105      	bne.n	5566 <resume+0x16>
    555a:	2200      	movs	r2, #0
    555c:	601a      	str	r2, [r3, #0]
    555e:	4a09      	ldr	r2, [pc, #36]	; (5584 <resume+0x34>)
    5560:	7e93      	ldrb	r3, [r2, #26]
    5562:	404b      	eors	r3, r1
    5564:	7693      	strb	r3, [r2, #26]
    5566:	4b08      	ldr	r3, [pc, #32]	; (5588 <resume+0x38>)
    5568:	2200      	movs	r2, #0
    556a:	2007      	movs	r0, #7
    556c:	601a      	str	r2, [r3, #0]
    556e:	f7ff f80f 	bl	4590 <sark_cpu_state>
    5572:	4b06      	ldr	r3, [pc, #24]	; (558c <resume+0x3c>)
    5574:	2210      	movs	r2, #16
    5576:	601a      	str	r2, [r3, #0]
    5578:	4b05      	ldr	r3, [pc, #20]	; (5590 <resume+0x40>)
    557a:	32d2      	adds	r2, #210	; 0xd2
    557c:	601a      	str	r2, [r3, #0]
    557e:	bd10      	pop	{r4, pc}
    5580:	0040021c 	.word	0x0040021c
    5584:	004005f8 	.word	0x004005f8
    5588:	00400224 	.word	0x00400224
    558c:	1f000010 	.word	0x1f000010
    5590:	21000008 	.word	0x21000008

00005594 <spin1_resume>:
    5594:	b510      	push	{r4, lr}
    5596:	2800      	cmp	r0, #0
    5598:	d102      	bne.n	55a0 <spin1_resume+0xc>
    559a:	f7ff ffd9 	bl	5550 <resume>
    559e:	e00a      	b.n	55b6 <spin1_resume+0x22>
    55a0:	4b05      	ldr	r3, [pc, #20]	; (55b8 <spin1_resume+0x24>)
    55a2:	2201      	movs	r2, #1
    55a4:	601a      	str	r2, [r3, #0]
    55a6:	4b05      	ldr	r3, [pc, #20]	; (55bc <spin1_resume+0x28>)
    55a8:	2009      	movs	r0, #9
    55aa:	7e9b      	ldrb	r3, [r3, #26]
    55ac:	2b00      	cmp	r3, #0
    55ae:	d100      	bne.n	55b2 <spin1_resume+0x1e>
    55b0:	2008      	movs	r0, #8
    55b2:	f7fe ffed 	bl	4590 <sark_cpu_state>
    55b6:	bd10      	pop	{r4, pc}
    55b8:	0040021c 	.word	0x0040021c
    55bc:	004005f8 	.word	0x004005f8

000055c0 <resume_wait>:
    55c0:	4b06      	ldr	r3, [pc, #24]	; (55dc <resume_wait+0x1c>)
    55c2:	2001      	movs	r0, #1
    55c4:	681b      	ldr	r3, [r3, #0]
    55c6:	4098      	lsls	r0, r3
    55c8:	4b05      	ldr	r3, [pc, #20]	; (55e0 <resume_wait+0x20>)
    55ca:	7e9a      	ldrb	r2, [r3, #26]
    55cc:	4b05      	ldr	r3, [pc, #20]	; (55e4 <resume_wait+0x24>)
    55ce:	681b      	ldr	r3, [r3, #0]
    55d0:	2a00      	cmp	r2, #0
    55d2:	d001      	beq.n	55d8 <resume_wait+0x18>
    55d4:	4398      	bics	r0, r3
    55d6:	e000      	b.n	55da <resume_wait+0x1a>
    55d8:	4018      	ands	r0, r3
    55da:	4770      	bx	lr
    55dc:	004005bc 	.word	0x004005bc
    55e0:	004005f8 	.word	0x004005f8
    55e4:	e2000058 	.word	0xe2000058

000055e8 <dispatch>:
    55e8:	b5f7      	push	{r0, r1, r2, r4, r5, r6, r7, lr}
    55ea:	4c34      	ldr	r4, [pc, #208]	; (56bc <dispatch+0xd4>)
    55ec:	2300      	movs	r3, #0
    55ee:	6023      	str	r3, [r4, #0]
    55f0:	4b33      	ldr	r3, [pc, #204]	; (56c0 <dispatch+0xd8>)
    55f2:	681b      	ldr	r3, [r3, #0]
    55f4:	2b00      	cmp	r3, #0
    55f6:	d05f      	beq.n	56b8 <dispatch+0xd0>
    55f8:	f7fa ede6 	blx	1c8 <cpu_int_disable>
    55fc:	2300      	movs	r3, #0
    55fe:	0005      	movs	r5, r0
    5600:	4a2f      	ldr	r2, [pc, #188]	; (56c0 <dispatch+0xd8>)
    5602:	6811      	ldr	r1, [r2, #0]
    5604:	2900      	cmp	r1, #0
    5606:	d103      	bne.n	5610 <dispatch+0x28>
    5608:	6813      	ldr	r3, [r2, #0]
    560a:	2b00      	cmp	r3, #0
    560c:	d0f0      	beq.n	55f0 <dispatch+0x8>
    560e:	e044      	b.n	569a <dispatch+0xb2>
    5610:	2b03      	cmp	r3, #3
    5612:	d8f9      	bhi.n	5608 <dispatch+0x20>
    5614:	1c5a      	adds	r2, r3, #1
    5616:	4694      	mov	ip, r2
    5618:	22c8      	movs	r2, #200	; 0xc8
    561a:	435a      	muls	r2, r3
    561c:	4829      	ldr	r0, [pc, #164]	; (56c4 <dispatch+0xdc>)
    561e:	0013      	movs	r3, r2
    5620:	5811      	ldr	r1, [r2, r0]
    5622:	1882      	adds	r2, r0, r2
    5624:	6852      	ldr	r2, [r2, #4]
    5626:	4291      	cmp	r1, r2
    5628:	d035      	beq.n	5696 <dispatch+0xae>
    562a:	220c      	movs	r2, #12
    562c:	434a      	muls	r2, r1
    562e:	18d2      	adds	r2, r2, r3
    5630:	1882      	adds	r2, r0, r2
    5632:	6896      	ldr	r6, [r2, #8]
    5634:	9601      	str	r6, [sp, #4]
    5636:	6917      	ldr	r7, [r2, #16]
    5638:	68d6      	ldr	r6, [r2, #12]
    563a:	3101      	adds	r1, #1
    563c:	220f      	movs	r2, #15
    563e:	4011      	ands	r1, r2
    5640:	5019      	str	r1, [r3, r0]
    5642:	9b01      	ldr	r3, [sp, #4]
    5644:	2b00      	cmp	r3, #0
    5646:	d026      	beq.n	5696 <dispatch+0xae>
    5648:	0028      	movs	r0, r5
    564a:	f7fa edc6 	blx	1d8 <cpu_int_restore>
    564e:	4d1e      	ldr	r5, [pc, #120]	; (56c8 <dispatch+0xe0>)
    5650:	9a01      	ldr	r2, [sp, #4]
    5652:	692b      	ldr	r3, [r5, #16]
    5654:	4293      	cmp	r3, r2
    5656:	d102      	bne.n	565e <dispatch+0x76>
    5658:	4a1c      	ldr	r2, [pc, #112]	; (56cc <dispatch+0xe4>)
    565a:	2101      	movs	r1, #1
    565c:	6391      	str	r1, [r2, #56]	; 0x38
    565e:	9a01      	ldr	r2, [sp, #4]
    5660:	4293      	cmp	r3, r2
    5662:	d103      	bne.n	566c <dispatch+0x84>
    5664:	4b1a      	ldr	r3, [pc, #104]	; (56d0 <dispatch+0xe8>)
    5666:	681b      	ldr	r3, [r3, #0]
    5668:	2b00      	cmp	r3, #0
    566a:	d103      	bne.n	5674 <dispatch+0x8c>
    566c:	9b01      	ldr	r3, [sp, #4]
    566e:	0039      	movs	r1, r7
    5670:	0030      	movs	r0, r6
    5672:	4798      	blx	r3
    5674:	9b01      	ldr	r3, [sp, #4]
    5676:	692a      	ldr	r2, [r5, #16]
    5678:	429a      	cmp	r2, r3
    567a:	d107      	bne.n	568c <dispatch+0xa4>
    567c:	4a13      	ldr	r2, [pc, #76]	; (56cc <dispatch+0xe4>)
    567e:	6bd3      	ldr	r3, [r2, #60]	; 0x3c
    5680:	2b00      	cmp	r3, #0
    5682:	d001      	beq.n	5688 <dispatch+0xa0>
    5684:	3b01      	subs	r3, #1
    5686:	63d3      	str	r3, [r2, #60]	; 0x3c
    5688:	2300      	movs	r3, #0
    568a:	6393      	str	r3, [r2, #56]	; 0x38
    568c:	f7fa ed9c 	blx	1c8 <cpu_int_disable>
    5690:	2300      	movs	r3, #0
    5692:	469c      	mov	ip, r3
    5694:	0005      	movs	r5, r0
    5696:	4663      	mov	r3, ip
    5698:	e7b2      	b.n	5600 <dispatch+0x18>
    569a:	f7fa eda2 	blx	1e0 <cpu_wfi>
    569e:	6823      	ldr	r3, [r4, #0]
    56a0:	2b01      	cmp	r3, #1
    56a2:	d105      	bne.n	56b0 <dispatch+0xc8>
    56a4:	f7ff ff8c 	bl	55c0 <resume_wait>
    56a8:	2800      	cmp	r0, #0
    56aa:	d101      	bne.n	56b0 <dispatch+0xc8>
    56ac:	f7ff ff50 	bl	5550 <resume>
    56b0:	0028      	movs	r0, r5
    56b2:	f7fa ed92 	blx	1d8 <cpu_int_restore>
    56b6:	e79b      	b.n	55f0 <dispatch+0x8>
    56b8:	bdf7      	pop	{r0, r1, r2, r4, r5, r6, r7, pc}
    56ba:	46c0      	nop			; (mov r8, r8)
    56bc:	0040021c 	.word	0x0040021c
    56c0:	0040054c 	.word	0x0040054c
    56c4:	0040022c 	.word	0x0040022c
    56c8:	0040083c 	.word	0x0040083c
    56cc:	00400694 	.word	0x00400694
    56d0:	00400224 	.word	0x00400224

000056d4 <spin1_callback_on>:
    56d4:	b570      	push	{r4, r5, r6, lr}
    56d6:	0015      	movs	r5, r2
    56d8:	4a1d      	ldr	r2, [pc, #116]	; (5750 <spin1_callback_on+0x7c>)
    56da:	00c3      	lsls	r3, r0, #3
    56dc:	5099      	str	r1, [r3, r2]
    56de:	18d3      	adds	r3, r2, r3
    56e0:	0004      	movs	r4, r0
    56e2:	605d      	str	r5, [r3, #4]
    56e4:	2d00      	cmp	r5, #0
    56e6:	da1b      	bge.n	5720 <spin1_callback_on+0x4c>
    56e8:	4a1a      	ldr	r2, [pc, #104]	; (5754 <spin1_callback_on+0x80>)
    56ea:	6813      	ldr	r3, [r2, #0]
    56ec:	1c59      	adds	r1, r3, #1
    56ee:	d012      	beq.n	5716 <spin1_callback_on+0x42>
    56f0:	2800      	cmp	r0, #0
    56f2:	d102      	bne.n	56fa <spin1_callback_on+0x26>
    56f4:	2b05      	cmp	r3, #5
    56f6:	d110      	bne.n	571a <spin1_callback_on+0x46>
    56f8:	e00d      	b.n	5716 <spin1_callback_on+0x42>
    56fa:	2805      	cmp	r0, #5
    56fc:	d102      	bne.n	5704 <spin1_callback_on+0x30>
    56fe:	2b00      	cmp	r3, #0
    5700:	d009      	beq.n	5716 <spin1_callback_on+0x42>
    5702:	e00a      	b.n	571a <spin1_callback_on+0x46>
    5704:	2806      	cmp	r0, #6
    5706:	d102      	bne.n	570e <spin1_callback_on+0x3a>
    5708:	2b07      	cmp	r3, #7
    570a:	d106      	bne.n	571a <spin1_callback_on+0x46>
    570c:	e003      	b.n	5716 <spin1_callback_on+0x42>
    570e:	2807      	cmp	r0, #7
    5710:	d103      	bne.n	571a <spin1_callback_on+0x46>
    5712:	2b06      	cmp	r3, #6
    5714:	d101      	bne.n	571a <spin1_callback_on+0x46>
    5716:	6014      	str	r4, [r2, #0]
    5718:	e002      	b.n	5720 <spin1_callback_on+0x4c>
    571a:	2013      	movs	r0, #19
    571c:	f7fa ed06 	blx	12c <rt_error>
    5720:	2c00      	cmp	r4, #0
    5722:	d001      	beq.n	5728 <spin1_callback_on+0x54>
    5724:	2c05      	cmp	r4, #5
    5726:	d101      	bne.n	572c <spin1_callback_on+0x58>
    5728:	4a0b      	ldr	r2, [pc, #44]	; (5758 <spin1_callback_on+0x84>)
    572a:	e003      	b.n	5734 <spin1_callback_on+0x60>
    572c:	3c06      	subs	r4, #6
    572e:	2c01      	cmp	r4, #1
    5730:	d80c      	bhi.n	574c <spin1_callback_on+0x78>
    5732:	4a0a      	ldr	r2, [pc, #40]	; (575c <spin1_callback_on+0x88>)
    5734:	6813      	ldr	r3, [r2, #0]
    5736:	1c99      	adds	r1, r3, #2
    5738:	d007      	beq.n	574a <spin1_callback_on+0x76>
    573a:	3301      	adds	r3, #1
    573c:	d106      	bne.n	574c <spin1_callback_on+0x78>
    573e:	1c6b      	adds	r3, r5, #1
    5740:	d004      	beq.n	574c <spin1_callback_on+0x78>
    5742:	2013      	movs	r0, #19
    5744:	f7fa ecf2 	blx	12c <rt_error>
    5748:	e000      	b.n	574c <spin1_callback_on+0x78>
    574a:	6015      	str	r5, [r2, #0]
    574c:	bd70      	pop	{r4, r5, r6, pc}
    574e:	46c0      	nop			; (mov r8, r8)
    5750:	0040083c 	.word	0x0040083c
    5754:	00400010 	.word	0x00400010
    5758:	00400008 	.word	0x00400008
    575c:	0040000c 	.word	0x0040000c

00005760 <spin1_exit>:
    5760:	4b04      	ldr	r3, [pc, #16]	; (5774 <spin1_exit+0x14>)
    5762:	4a05      	ldr	r2, [pc, #20]	; (5778 <spin1_exit+0x18>)
    5764:	601a      	str	r2, [r3, #0]
    5766:	4b05      	ldr	r3, [pc, #20]	; (577c <spin1_exit+0x1c>)
    5768:	2200      	movs	r2, #0
    576a:	601a      	str	r2, [r3, #0]
    576c:	4b04      	ldr	r3, [pc, #16]	; (5780 <spin1_exit+0x20>)
    576e:	6018      	str	r0, [r3, #0]
    5770:	4770      	bx	lr
    5772:	46c0      	nop			; (mov r8, r8)
    5774:	1f000014 	.word	0x1f000014
    5778:	09003012 	.word	0x09003012
    577c:	0040054c 	.word	0x0040054c
    5780:	00400694 	.word	0x00400694

00005784 <spin1_set_timer_tick_and_phase>:
    5784:	4b02      	ldr	r3, [pc, #8]	; (5790 <spin1_set_timer_tick_and_phase+0xc>)
    5786:	6018      	str	r0, [r3, #0]
    5788:	4b02      	ldr	r3, [pc, #8]	; (5794 <spin1_set_timer_tick_and_phase+0x10>)
    578a:	6019      	str	r1, [r3, #0]
    578c:	4770      	bx	lr
    578e:	46c0      	nop			; (mov r8, r8)
    5790:	00400220 	.word	0x00400220
    5794:	00400218 	.word	0x00400218

00005798 <clean_up>:
    5798:	b510      	push	{r4, lr}
    579a:	f7fa ed16 	blx	1c8 <cpu_int_disable>
    579e:	4b10      	ldr	r3, [pc, #64]	; (57e0 <clean_up+0x48>)
    57a0:	681a      	ldr	r2, [r3, #0]
    57a2:	2320      	movs	r3, #32
    57a4:	61da      	str	r2, [r3, #28]
    57a6:	4b0f      	ldr	r3, [pc, #60]	; (57e4 <clean_up+0x4c>)
    57a8:	681a      	ldr	r2, [r3, #0]
    57aa:	4b0f      	ldr	r3, [pc, #60]	; (57e8 <clean_up+0x50>)
    57ac:	601a      	str	r2, [r3, #0]
    57ae:	4b0f      	ldr	r3, [pc, #60]	; (57ec <clean_up+0x54>)
    57b0:	681a      	ldr	r2, [r3, #0]
    57b2:	4b0f      	ldr	r3, [pc, #60]	; (57f0 <clean_up+0x58>)
    57b4:	601a      	str	r2, [r3, #0]
    57b6:	2359      	movs	r3, #89	; 0x59
    57b8:	781b      	ldrb	r3, [r3, #0]
    57ba:	4a0e      	ldr	r2, [pc, #56]	; (57f4 <clean_up+0x5c>)
    57bc:	009b      	lsls	r3, r3, #2
    57be:	189b      	adds	r3, r3, r2
    57c0:	2232      	movs	r2, #50	; 0x32
    57c2:	601a      	str	r2, [r3, #0]
    57c4:	4b0c      	ldr	r3, [pc, #48]	; (57f8 <clean_up+0x60>)
    57c6:	3a31      	subs	r2, #49	; 0x31
    57c8:	601a      	str	r2, [r3, #0]
    57ca:	4b0c      	ldr	r3, [pc, #48]	; (57fc <clean_up+0x64>)
    57cc:	2200      	movs	r2, #0
    57ce:	601a      	str	r2, [r3, #0]
    57d0:	4b0b      	ldr	r3, [pc, #44]	; (5800 <clean_up+0x68>)
    57d2:	323f      	adds	r2, #63	; 0x3f
    57d4:	601a      	str	r2, [r3, #0]
    57d6:	3a32      	subs	r2, #50	; 0x32
    57d8:	601a      	str	r2, [r3, #0]
    57da:	f7fa ecfe 	blx	1d8 <cpu_int_restore>
    57de:	bd10      	pop	{r4, pc}
    57e0:	00400690 	.word	0x00400690
    57e4:	00400830 	.word	0x00400830
    57e8:	1f00000c 	.word	0x1f00000c
    57ec:	004006dc 	.word	0x004006dc
    57f0:	1f000010 	.word	0x1f000010
    57f4:	2f000200 	.word	0x2f000200
    57f8:	2100000c 	.word	0x2100000c
    57fc:	40000018 	.word	0x40000018
    5800:	40000010 	.word	0x40000010

00005804 <report_debug>:
    5804:	4b12      	ldr	r3, [pc, #72]	; (5850 <report_debug+0x4c>)
    5806:	b510      	push	{r4, lr}
    5808:	781b      	ldrb	r3, [r3, #0]
    580a:	2b00      	cmp	r3, #0
    580c:	d00e      	beq.n	582c <report_debug+0x28>
    580e:	4b11      	ldr	r3, [pc, #68]	; (5854 <report_debug+0x50>)
    5810:	4911      	ldr	r1, [pc, #68]	; (5858 <report_debug+0x54>)
    5812:	681a      	ldr	r2, [r3, #0]
    5814:	4b11      	ldr	r3, [pc, #68]	; (585c <report_debug+0x58>)
    5816:	2002      	movs	r0, #2
    5818:	681b      	ldr	r3, [r3, #0]
    581a:	18d2      	adds	r2, r2, r3
    581c:	f7ff fc38 	bl	5090 <io_printf>
    5820:	4b0f      	ldr	r3, [pc, #60]	; (5860 <report_debug+0x5c>)
    5822:	4910      	ldr	r1, [pc, #64]	; (5864 <report_debug+0x60>)
    5824:	681a      	ldr	r2, [r3, #0]
    5826:	2002      	movs	r0, #2
    5828:	f7ff fc32 	bl	5090 <io_printf>
    582c:	4c0e      	ldr	r4, [pc, #56]	; (5868 <report_debug+0x64>)
    582e:	490f      	ldr	r1, [pc, #60]	; (586c <report_debug+0x68>)
    5830:	6922      	ldr	r2, [r4, #16]
    5832:	2002      	movs	r0, #2
    5834:	f7ff fc2c 	bl	5090 <io_printf>
    5838:	6b62      	ldr	r2, [r4, #52]	; 0x34
    583a:	490d      	ldr	r1, [pc, #52]	; (5870 <report_debug+0x6c>)
    583c:	2002      	movs	r0, #2
    583e:	f7ff fc27 	bl	5090 <io_printf>
    5842:	4b0c      	ldr	r3, [pc, #48]	; (5874 <report_debug+0x70>)
    5844:	490c      	ldr	r1, [pc, #48]	; (5878 <report_debug+0x74>)
    5846:	681a      	ldr	r2, [r3, #0]
    5848:	2002      	movs	r0, #2
    584a:	f7ff fc21 	bl	5090 <io_printf>
    584e:	bd10      	pop	{r4, pc}
    5850:	004006e4 	.word	0x004006e4
    5854:	e1000300 	.word	0xe1000300
    5858:	00007369 	.word	0x00007369
    585c:	e1000304 	.word	0xe1000304
    5860:	e1000320 	.word	0xe1000320
    5864:	0000738f 	.word	0x0000738f
    5868:	00400694 	.word	0x00400694
    586c:	000073b5 	.word	0x000073b5
    5870:	000073db 	.word	0x000073db
    5874:	40000040 	.word	0x40000040
    5878:	00007404 	.word	0x00007404

0000587c <report_warns>:
    587c:	b510      	push	{r4, lr}
    587e:	4c0d      	ldr	r4, [pc, #52]	; (58b4 <report_warns+0x38>)
    5880:	6863      	ldr	r3, [r4, #4]
    5882:	07db      	lsls	r3, r3, #31
    5884:	d504      	bpl.n	5890 <report_warns+0x14>
    5886:	6a22      	ldr	r2, [r4, #32]
    5888:	490b      	ldr	r1, [pc, #44]	; (58b8 <report_warns+0x3c>)
    588a:	2002      	movs	r0, #2
    588c:	f7ff fc00 	bl	5090 <io_printf>
    5890:	6863      	ldr	r3, [r4, #4]
    5892:	2002      	movs	r0, #2
    5894:	4203      	tst	r3, r0
    5896:	d003      	beq.n	58a0 <report_warns+0x24>
    5898:	69e2      	ldr	r2, [r4, #28]
    589a:	4908      	ldr	r1, [pc, #32]	; (58bc <report_warns+0x40>)
    589c:	f7ff fbf8 	bl	5090 <io_printf>
    58a0:	6863      	ldr	r3, [r4, #4]
    58a2:	075b      	lsls	r3, r3, #29
    58a4:	d504      	bpl.n	58b0 <report_warns+0x34>
    58a6:	6a62      	ldr	r2, [r4, #36]	; 0x24
    58a8:	4905      	ldr	r1, [pc, #20]	; (58c0 <report_warns+0x44>)
    58aa:	2002      	movs	r0, #2
    58ac:	f7ff fbf0 	bl	5090 <io_printf>
    58b0:	bd10      	pop	{r4, pc}
    58b2:	46c0      	nop			; (mov r8, r8)
    58b4:	00400694 	.word	0x00400694
    58b8:	00007423 	.word	0x00007423
    58bc:	0000744f 	.word	0x0000744f
    58c0:	0000747a 	.word	0x0000747a

000058c4 <start>:
    58c4:	b5f8      	push	{r3, r4, r5, r6, r7, lr}
    58c6:	4d2e      	ldr	r5, [pc, #184]	; (5980 <start+0xbc>)
    58c8:	0007      	movs	r7, r0
    58ca:	6029      	str	r1, [r5, #0]
    58cc:	682b      	ldr	r3, [r5, #0]
    58ce:	200a      	movs	r0, #10
    58d0:	2b00      	cmp	r3, #0
    58d2:	d100      	bne.n	58d6 <start+0x12>
    58d4:	2007      	movs	r0, #7
    58d6:	f7fe fe5b 	bl	4590 <sark_cpu_state>
    58da:	2380      	movs	r3, #128	; 0x80
    58dc:	2400      	movs	r4, #0
    58de:	059b      	lsls	r3, r3, #22
    58e0:	601c      	str	r4, [r3, #0]
    58e2:	f7ff fd37 	bl	5354 <configure_dma_controller>
    58e6:	4b27      	ldr	r3, [pc, #156]	; (5984 <start+0xc0>)
    58e8:	4e27      	ldr	r6, [pc, #156]	; (5988 <start+0xc4>)
    58ea:	6819      	ldr	r1, [r3, #0]
    58ec:	6830      	ldr	r0, [r6, #0]
    58ee:	f7ff fd45 	bl	537c <configure_timer1>
    58f2:	6828      	ldr	r0, [r5, #0]
    58f4:	4243      	negs	r3, r0
    58f6:	4158      	adcs	r0, r3
    58f8:	f7ff fd5a 	bl	53b0 <configure_vic>
    58fc:	4b23      	ldr	r3, [pc, #140]	; (598c <start+0xc8>)
    58fe:	2201      	movs	r2, #1
    5900:	605c      	str	r4, [r3, #4]
    5902:	61dc      	str	r4, [r3, #28]
    5904:	621c      	str	r4, [r3, #32]
    5906:	625c      	str	r4, [r3, #36]	; 0x24
    5908:	601c      	str	r4, [r3, #0]
    590a:	639c      	str	r4, [r3, #56]	; 0x38
    590c:	63dc      	str	r4, [r3, #60]	; 0x3c
    590e:	645c      	str	r4, [r3, #68]	; 0x44
    5910:	641c      	str	r4, [r3, #64]	; 0x40
    5912:	615a      	str	r2, [r3, #20]
    5914:	001c      	movs	r4, r3
    5916:	4297      	cmp	r7, r2
    5918:	d101      	bne.n	591e <start+0x5a>
    591a:	f7ff f901 	bl	4b20 <event_wait>
    591e:	6833      	ldr	r3, [r6, #0]
    5920:	2b00      	cmp	r3, #0
    5922:	d005      	beq.n	5930 <start+0x6c>
    5924:	682b      	ldr	r3, [r5, #0]
    5926:	2b00      	cmp	r3, #0
    5928:	d102      	bne.n	5930 <start+0x6c>
    592a:	4b19      	ldr	r3, [pc, #100]	; (5990 <start+0xcc>)
    592c:	22e2      	movs	r2, #226	; 0xe2
    592e:	601a      	str	r2, [r3, #0]
    5930:	4b18      	ldr	r3, [pc, #96]	; (5994 <start+0xd0>)
    5932:	2200      	movs	r2, #0
    5934:	601a      	str	r2, [r3, #0]
    5936:	4b18      	ldr	r3, [pc, #96]	; (5998 <start+0xd4>)
    5938:	3201      	adds	r2, #1
    593a:	601a      	str	r2, [r3, #0]
    593c:	f7ff fe54 	bl	55e8 <dispatch>
    5940:	f7ff ff2a 	bl	5798 <clean_up>
    5944:	f7fa ec38 	blx	1b8 <cpu_int_enable>
    5948:	4b14      	ldr	r3, [pc, #80]	; (599c <start+0xd8>)
    594a:	681a      	ldr	r2, [r3, #0]
    594c:	4b14      	ldr	r3, [pc, #80]	; (59a0 <start+0xdc>)
    594e:	681b      	ldr	r3, [r3, #0]
    5950:	18d3      	adds	r3, r2, r3
    5952:	60a3      	str	r3, [r4, #8]
    5954:	4b13      	ldr	r3, [pc, #76]	; (59a4 <start+0xe0>)
    5956:	681b      	ldr	r3, [r3, #0]
    5958:	60e3      	str	r3, [r4, #12]
    595a:	4b13      	ldr	r3, [pc, #76]	; (59a8 <start+0xe4>)
    595c:	681b      	ldr	r3, [r3, #0]
    595e:	61a3      	str	r3, [r4, #24]
    5960:	4b12      	ldr	r3, [pc, #72]	; (59ac <start+0xe8>)
    5962:	681a      	ldr	r2, [r3, #0]
    5964:	4b12      	ldr	r3, [pc, #72]	; (59b0 <start+0xec>)
    5966:	681b      	ldr	r3, [r3, #0]
    5968:	18d3      	adds	r3, r2, r3
    596a:	62e3      	str	r3, [r4, #44]	; 0x2c
    596c:	4b11      	ldr	r3, [pc, #68]	; (59b4 <start+0xf0>)
    596e:	681b      	ldr	r3, [r3, #0]
    5970:	6323      	str	r3, [r4, #48]	; 0x30
    5972:	f7ff ff47 	bl	5804 <report_debug>
    5976:	f7ff ff81 	bl	587c <report_warns>
    597a:	6820      	ldr	r0, [r4, #0]
    597c:	bdf8      	pop	{r3, r4, r5, r6, r7, pc}
    597e:	46c0      	nop			; (mov r8, r8)
    5980:	00400224 	.word	0x00400224
    5984:	00400218 	.word	0x00400218
    5988:	00400220 	.word	0x00400220
    598c:	00400694 	.word	0x00400694
    5990:	21000008 	.word	0x21000008
    5994:	00400834 	.word	0x00400834
    5998:	0040054c 	.word	0x0040054c
    599c:	e1000300 	.word	0xe1000300
    59a0:	e1000304 	.word	0xe1000304
    59a4:	e1000320 	.word	0xe1000320
    59a8:	40000040 	.word	0x40000040
    59ac:	e1000318 	.word	0xe1000318
    59b0:	e100031c 	.word	0xe100031c
    59b4:	e100032c 	.word	0xe100032c

000059b8 <spin1_start_paused>:
    59b8:	b510      	push	{r4, lr}
    59ba:	2101      	movs	r1, #1
    59bc:	2000      	movs	r0, #0
    59be:	f7ff ff81 	bl	58c4 <start>
    59c2:	bd10      	pop	{r4, pc}

000059c4 <spin1_delay_us>:
    59c4:	b510      	push	{r4, lr}
    59c6:	f7fa fc79 	bl	2bc <sark_delay_us>
    59ca:	bd10      	pop	{r4, pc}

000059cc <spin1_dma_transfer>:
    59cc:	b5f0      	push	{r4, r5, r6, r7, lr}
    59ce:	b085      	sub	sp, #20
    59d0:	9100      	str	r1, [sp, #0]
    59d2:	9201      	str	r2, [sp, #4]
    59d4:	001d      	movs	r5, r3
    59d6:	9003      	str	r0, [sp, #12]
    59d8:	f7fa ebf6 	blx	1c8 <cpu_int_disable>
    59dc:	491f      	ldr	r1, [pc, #124]	; (5a5c <spin1_dma_transfer+0x90>)
    59de:	230f      	movs	r3, #15
    59e0:	684a      	ldr	r2, [r1, #4]
    59e2:	680f      	ldr	r7, [r1, #0]
    59e4:	1c54      	adds	r4, r2, #1
    59e6:	401c      	ands	r4, r3
    59e8:	0026      	movs	r6, r4
    59ea:	4b1d      	ldr	r3, [pc, #116]	; (5a60 <spin1_dma_transfer+0x94>)
    59ec:	9002      	str	r0, [sp, #8]
    59ee:	42bc      	cmp	r4, r7
    59f0:	d025      	beq.n	5a3e <spin1_dma_transfer+0x72>
    59f2:	695c      	ldr	r4, [r3, #20]
    59f4:	04ed      	lsls	r5, r5, #19
    59f6:	1c60      	adds	r0, r4, #1
    59f8:	6158      	str	r0, [r3, #20]
    59fa:	980a      	ldr	r0, [sp, #40]	; 0x28
    59fc:	23c0      	movs	r3, #192	; 0xc0
    59fe:	045b      	lsls	r3, r3, #17
    5a00:	4303      	orrs	r3, r0
    5a02:	2014      	movs	r0, #20
    5a04:	431d      	orrs	r5, r3
    5a06:	0003      	movs	r3, r0
    5a08:	4353      	muls	r3, r2
    5a0a:	18c9      	adds	r1, r1, r3
    5a0c:	9b03      	ldr	r3, [sp, #12]
    5a0e:	60cb      	str	r3, [r1, #12]
    5a10:	9b00      	ldr	r3, [sp, #0]
    5a12:	610b      	str	r3, [r1, #16]
    5a14:	9b01      	ldr	r3, [sp, #4]
    5a16:	614b      	str	r3, [r1, #20]
    5a18:	4b12      	ldr	r3, [pc, #72]	; (5a64 <spin1_dma_transfer+0x98>)
    5a1a:	608c      	str	r4, [r1, #8]
    5a1c:	618d      	str	r5, [r1, #24]
    5a1e:	681b      	ldr	r3, [r3, #0]
    5a20:	075b      	lsls	r3, r3, #29
    5a22:	d409      	bmi.n	5a38 <spin1_dma_transfer+0x6c>
    5a24:	42ba      	cmp	r2, r7
    5a26:	d107      	bne.n	5a38 <spin1_dma_transfer+0x6c>
    5a28:	4b0f      	ldr	r3, [pc, #60]	; (5a68 <spin1_dma_transfer+0x9c>)
    5a2a:	9a00      	ldr	r2, [sp, #0]
    5a2c:	601a      	str	r2, [r3, #0]
    5a2e:	4b0f      	ldr	r3, [pc, #60]	; (5a6c <spin1_dma_transfer+0xa0>)
    5a30:	9a01      	ldr	r2, [sp, #4]
    5a32:	601a      	str	r2, [r3, #0]
    5a34:	4b0e      	ldr	r3, [pc, #56]	; (5a70 <spin1_dma_transfer+0xa4>)
    5a36:	601d      	str	r5, [r3, #0]
    5a38:	4b08      	ldr	r3, [pc, #32]	; (5a5c <spin1_dma_transfer+0x90>)
    5a3a:	605e      	str	r6, [r3, #4]
    5a3c:	e007      	b.n	5a4e <spin1_dma_transfer+0x82>
    5a3e:	6859      	ldr	r1, [r3, #4]
    5a40:	2202      	movs	r2, #2
    5a42:	430a      	orrs	r2, r1
    5a44:	605a      	str	r2, [r3, #4]
    5a46:	69da      	ldr	r2, [r3, #28]
    5a48:	2400      	movs	r4, #0
    5a4a:	3201      	adds	r2, #1
    5a4c:	61da      	str	r2, [r3, #28]
    5a4e:	9802      	ldr	r0, [sp, #8]
    5a50:	f7fa ebc2 	blx	1d8 <cpu_int_restore>
    5a54:	0020      	movs	r0, r4
    5a56:	b005      	add	sp, #20
    5a58:	bdf0      	pop	{r4, r5, r6, r7, pc}
    5a5a:	46c0      	nop			; (mov r8, r8)
    5a5c:	004006e8 	.word	0x004006e8
    5a60:	00400694 	.word	0x00400694
    5a64:	40000014 	.word	0x40000014
    5a68:	40000004 	.word	0x40000004
    5a6c:	40000008 	.word	0x40000008
    5a70:	4000000c 	.word	0x4000000c

00005a74 <spin1_memcpy>:
    5a74:	2300      	movs	r3, #0
    5a76:	b510      	push	{r4, lr}
    5a78:	429a      	cmp	r2, r3
    5a7a:	d003      	beq.n	5a84 <spin1_memcpy+0x10>
    5a7c:	5ccc      	ldrb	r4, [r1, r3]
    5a7e:	54c4      	strb	r4, [r0, r3]
    5a80:	3301      	adds	r3, #1
    5a82:	e7f9      	b.n	5a78 <spin1_memcpy+0x4>
    5a84:	bd10      	pop	{r4, pc}
	...

00005a88 <spin1_send_packet>:
    5a88:	b5f7      	push	{r0, r1, r2, r4, r5, r6, r7, lr}
    5a8a:	000d      	movs	r5, r1
    5a8c:	0014      	movs	r4, r2
    5a8e:	0006      	movs	r6, r0
    5a90:	f7fa eb8a 	blx	1a8 <cpu_irq_disable>
    5a94:	2380      	movs	r3, #128	; 0x80
    5a96:	059b      	lsls	r3, r3, #22
    5a98:	469c      	mov	ip, r3
    5a9a:	4662      	mov	r2, ip
    5a9c:	2300      	movs	r3, #0
    5a9e:	270f      	movs	r7, #15
    5aa0:	9000      	str	r0, [sp, #0]
    5aa2:	6013      	str	r3, [r2, #0]
    5aa4:	6811      	ldr	r1, [r2, #0]
    5aa6:	4a2e      	ldr	r2, [pc, #184]	; (5b60 <spin1_send_packet+0xd8>)
    5aa8:	0049      	lsls	r1, r1, #1
    5aaa:	d51b      	bpl.n	5ae4 <spin1_send_packet+0x5c>
    5aac:	6850      	ldr	r0, [r2, #4]
    5aae:	1c41      	adds	r1, r0, #1
    5ab0:	400f      	ands	r7, r1
    5ab2:	6811      	ldr	r1, [r2, #0]
    5ab4:	428f      	cmp	r7, r1
    5ab6:	d109      	bne.n	5acc <spin1_send_packet+0x44>
    5ab8:	4a2a      	ldr	r2, [pc, #168]	; (5b64 <spin1_send_packet+0xdc>)
    5aba:	2104      	movs	r1, #4
    5abc:	6854      	ldr	r4, [r2, #4]
    5abe:	4321      	orrs	r1, r4
    5ac0:	6051      	str	r1, [r2, #4]
    5ac2:	6a51      	ldr	r1, [r2, #36]	; 0x24
    5ac4:	001c      	movs	r4, r3
    5ac6:	3101      	adds	r1, #1
    5ac8:	6251      	str	r1, [r2, #36]	; 0x24
    5aca:	e044      	b.n	5b56 <spin1_send_packet+0xce>
    5acc:	230c      	movs	r3, #12
    5ace:	0001      	movs	r1, r0
    5ad0:	4359      	muls	r1, r3
    5ad2:	6057      	str	r7, [r2, #4]
    5ad4:	1851      	adds	r1, r2, r1
    5ad6:	2280      	movs	r2, #128	; 0x80
    5ad8:	608e      	str	r6, [r1, #8]
    5ada:	60cd      	str	r5, [r1, #12]
    5adc:	610c      	str	r4, [r1, #16]
    5ade:	0112      	lsls	r2, r2, #4
    5ae0:	4b21      	ldr	r3, [pc, #132]	; (5b68 <spin1_send_packet+0xe0>)
    5ae2:	e02a      	b.n	5b3a <spin1_send_packet+0xb2>
    5ae4:	6853      	ldr	r3, [r2, #4]
    5ae6:	6811      	ldr	r1, [r2, #0]
    5ae8:	3301      	adds	r3, #1
    5aea:	403b      	ands	r3, r7
    5aec:	428b      	cmp	r3, r1
    5aee:	d113      	bne.n	5b18 <spin1_send_packet+0x90>
    5af0:	200c      	movs	r0, #12
    5af2:	0001      	movs	r1, r0
    5af4:	4359      	muls	r1, r3
    5af6:	1851      	adds	r1, r2, r1
    5af8:	6888      	ldr	r0, [r1, #8]
    5afa:	3301      	adds	r3, #1
    5afc:	9001      	str	r0, [sp, #4]
    5afe:	403b      	ands	r3, r7
    5b00:	68c8      	ldr	r0, [r1, #12]
    5b02:	6909      	ldr	r1, [r1, #16]
    5b04:	6013      	str	r3, [r2, #0]
    5b06:	4663      	mov	r3, ip
    5b08:	6019      	str	r1, [r3, #0]
    5b0a:	038b      	lsls	r3, r1, #14
    5b0c:	d501      	bpl.n	5b12 <spin1_send_packet+0x8a>
    5b0e:	4b17      	ldr	r3, [pc, #92]	; (5b6c <spin1_send_packet+0xe4>)
    5b10:	6018      	str	r0, [r3, #0]
    5b12:	4b17      	ldr	r3, [pc, #92]	; (5b70 <spin1_send_packet+0xe8>)
    5b14:	9a01      	ldr	r2, [sp, #4]
    5b16:	601a      	str	r2, [r3, #0]
    5b18:	4911      	ldr	r1, [pc, #68]	; (5b60 <spin1_send_packet+0xd8>)
    5b1a:	684a      	ldr	r2, [r1, #4]
    5b1c:	680b      	ldr	r3, [r1, #0]
    5b1e:	4293      	cmp	r3, r2
    5b20:	d10d      	bne.n	5b3e <spin1_send_packet+0xb6>
    5b22:	2380      	movs	r3, #128	; 0x80
    5b24:	059b      	lsls	r3, r3, #22
    5b26:	601c      	str	r4, [r3, #0]
    5b28:	03a3      	lsls	r3, r4, #14
    5b2a:	d501      	bpl.n	5b30 <spin1_send_packet+0xa8>
    5b2c:	4b0f      	ldr	r3, [pc, #60]	; (5b6c <spin1_send_packet+0xe4>)
    5b2e:	601d      	str	r5, [r3, #0]
    5b30:	4b0f      	ldr	r3, [pc, #60]	; (5b70 <spin1_send_packet+0xe8>)
    5b32:	2280      	movs	r2, #128	; 0x80
    5b34:	601e      	str	r6, [r3, #0]
    5b36:	4b0f      	ldr	r3, [pc, #60]	; (5b74 <spin1_send_packet+0xec>)
    5b38:	0112      	lsls	r2, r2, #4
    5b3a:	601a      	str	r2, [r3, #0]
    5b3c:	e00a      	b.n	5b54 <spin1_send_packet+0xcc>
    5b3e:	200c      	movs	r0, #12
    5b40:	0003      	movs	r3, r0
    5b42:	4353      	muls	r3, r2
    5b44:	18cb      	adds	r3, r1, r3
    5b46:	609e      	str	r6, [r3, #8]
    5b48:	60dd      	str	r5, [r3, #12]
    5b4a:	611c      	str	r4, [r3, #16]
    5b4c:	3201      	adds	r2, #1
    5b4e:	230f      	movs	r3, #15
    5b50:	401a      	ands	r2, r3
    5b52:	604a      	str	r2, [r1, #4]
    5b54:	2401      	movs	r4, #1
    5b56:	9800      	ldr	r0, [sp, #0]
    5b58:	f7fa eb3e 	blx	1d8 <cpu_int_restore>
    5b5c:	0020      	movs	r0, r4
    5b5e:	bdfe      	pop	{r1, r2, r3, r4, r5, r6, r7, pc}
    5b60:	0040087c 	.word	0x0040087c
    5b64:	00400694 	.word	0x00400694
    5b68:	1f000010 	.word	0x1f000010
    5b6c:	20000004 	.word	0x20000004
    5b70:	20000008 	.word	0x20000008
    5b74:	1f000014 	.word	0x1f000014

00005b78 <spin1_send_mc_packet>:
    5b78:	b510      	push	{r4, lr}
    5b7a:	1e53      	subs	r3, r2, #1
    5b7c:	419a      	sbcs	r2, r3
    5b7e:	0452      	lsls	r2, r2, #17
    5b80:	f7ff ff82 	bl	5a88 <spin1_send_packet>
    5b84:	bd10      	pop	{r4, pc}
	...

00005b88 <spin1_get_core_id>:
    5b88:	4b01      	ldr	r3, [pc, #4]	; (5b90 <spin1_get_core_id+0x8>)
    5b8a:	6818      	ldr	r0, [r3, #0]
    5b8c:	4770      	bx	lr
    5b8e:	46c0      	nop			; (mov r8, r8)
    5b90:	004005bc 	.word	0x004005bc

00005b94 <spin1_get_chip_id>:
    5b94:	4b01      	ldr	r3, [pc, #4]	; (5b9c <spin1_get_chip_id+0x8>)
    5b96:	8818      	ldrh	r0, [r3, #0]
    5b98:	4770      	bx	lr
    5b9a:	46c0      	nop			; (mov r8, r8)
    5b9c:	e5007f00 	.word	0xe5007f00

00005ba0 <spin1_malloc>:
    5ba0:	b510      	push	{r4, lr}
    5ba2:	2101      	movs	r1, #1
    5ba4:	f7ff f8e8 	bl	4d78 <sark_alloc>
    5ba8:	bd10      	pop	{r4, pc}
	...

00005bac <schedule_sysmode>:
    5bac:	b5f0      	push	{r4, r5, r6, r7, lr}
    5bae:	b085      	sub	sp, #20
    5bb0:	9003      	str	r0, [sp, #12]
    5bb2:	9b03      	ldr	r3, [sp, #12]
    5bb4:	4c1d      	ldr	r4, [pc, #116]	; (5c2c <schedule_sysmode+0x80>)
    5bb6:	00dd      	lsls	r5, r3, #3
    5bb8:	1963      	adds	r3, r4, r5
    5bba:	685b      	ldr	r3, [r3, #4]
    5bbc:	0008      	movs	r0, r1
    5bbe:	2b00      	cmp	r3, #0
    5bc0:	dc03      	bgt.n	5bca <schedule_sysmode+0x1e>
    5bc2:	592b      	ldr	r3, [r5, r4]
    5bc4:	0011      	movs	r1, r2
    5bc6:	4798      	blx	r3
    5bc8:	e02d      	b.n	5c26 <schedule_sysmode+0x7a>
    5bca:	3b01      	subs	r3, #1
    5bcc:	21c8      	movs	r1, #200	; 0xc8
    5bce:	001f      	movs	r7, r3
    5bd0:	434f      	muls	r7, r1
    5bd2:	4e17      	ldr	r6, [pc, #92]	; (5c30 <schedule_sysmode+0x84>)
    5bd4:	9701      	str	r7, [sp, #4]
    5bd6:	19f7      	adds	r7, r6, r7
    5bd8:	687b      	ldr	r3, [r7, #4]
    5bda:	9302      	str	r3, [sp, #8]
    5bdc:	39b9      	subs	r1, #185	; 0xb9
    5bde:	3301      	adds	r3, #1
    5be0:	400b      	ands	r3, r1
    5be2:	469c      	mov	ip, r3
    5be4:	9b01      	ldr	r3, [sp, #4]
    5be6:	599b      	ldr	r3, [r3, r6]
    5be8:	459c      	cmp	ip, r3
    5bea:	d014      	beq.n	5c16 <schedule_sysmode+0x6a>
    5bec:	9b02      	ldr	r3, [sp, #8]
    5bee:	3903      	subs	r1, #3
    5bf0:	434b      	muls	r3, r1
    5bf2:	0019      	movs	r1, r3
    5bf4:	9b01      	ldr	r3, [sp, #4]
    5bf6:	18cb      	adds	r3, r1, r3
    5bf8:	18f6      	adds	r6, r6, r3
    5bfa:	592b      	ldr	r3, [r5, r4]
    5bfc:	60b3      	str	r3, [r6, #8]
    5bfe:	4663      	mov	r3, ip
    5c00:	607b      	str	r3, [r7, #4]
    5c02:	9b03      	ldr	r3, [sp, #12]
    5c04:	60f0      	str	r0, [r6, #12]
    5c06:	6132      	str	r2, [r6, #16]
    5c08:	2b02      	cmp	r3, #2
    5c0a:	d10c      	bne.n	5c26 <schedule_sysmode+0x7a>
    5c0c:	4a09      	ldr	r2, [pc, #36]	; (5c34 <schedule_sysmode+0x88>)
    5c0e:	6bd3      	ldr	r3, [r2, #60]	; 0x3c
    5c10:	3301      	adds	r3, #1
    5c12:	63d3      	str	r3, [r2, #60]	; 0x3c
    5c14:	e007      	b.n	5c26 <schedule_sysmode+0x7a>
    5c16:	4b07      	ldr	r3, [pc, #28]	; (5c34 <schedule_sysmode+0x88>)
    5c18:	2201      	movs	r2, #1
    5c1a:	6859      	ldr	r1, [r3, #4]
    5c1c:	430a      	orrs	r2, r1
    5c1e:	605a      	str	r2, [r3, #4]
    5c20:	6a1a      	ldr	r2, [r3, #32]
    5c22:	3201      	adds	r2, #1
    5c24:	621a      	str	r2, [r3, #32]
    5c26:	b005      	add	sp, #20
    5c28:	bdf0      	pop	{r4, r5, r6, r7, pc}
    5c2a:	46c0      	nop			; (mov r8, r8)
    5c2c:	0040083c 	.word	0x0040083c
    5c30:	0040022c 	.word	0x0040022c
    5c34:	00400694 	.word	0x00400694

00005c38 <sark_pre_main>:
    5c38:	b510      	push	{r4, lr}
    5c3a:	f7fe fd1f 	bl	467c <sark_call_cpp_constructors>
    5c3e:	2006      	movs	r0, #6
    5c40:	f7fe fca6 	bl	4590 <sark_cpu_state>
    5c44:	2201      	movs	r2, #1
    5c46:	235b      	movs	r3, #91	; 0x5b
    5c48:	701a      	strb	r2, [r3, #0]
    5c4a:	f7fe fca9 	bl	45a0 <sark_app_lead>
    5c4e:	4b04      	ldr	r3, [pc, #16]	; (5c60 <sark_pre_main+0x28>)
    5c50:	4a04      	ldr	r2, [pc, #16]	; (5c64 <sark_pre_main+0x2c>)
    5c52:	681b      	ldr	r3, [r3, #0]
    5c54:	1a1b      	subs	r3, r3, r0
    5c56:	4258      	negs	r0, r3
    5c58:	4143      	adcs	r3, r0
    5c5a:	7013      	strb	r3, [r2, #0]
    5c5c:	bd10      	pop	{r4, pc}
    5c5e:	46c0      	nop			; (mov r8, r8)
    5c60:	004005bc 	.word	0x004005bc
    5c64:	004006e4 	.word	0x004006e4

00005c68 <sark_post_main>:
    5c68:	b510      	push	{r4, lr}
    5c6a:	200b      	movs	r0, #11
    5c6c:	f7fe fc90 	bl	4590 <sark_cpu_state>
    5c70:	bd10      	pop	{r4, pc}
	...

00005c74 <cc_rx_ready_isr>:
    5c74:	e24ee004 	sub	lr, lr, #4
    5c78:	e92d500f 	push	{r0, r1, r2, r3, ip, lr}
    5c7c:	e3a03202 	mov	r3, #536870912	; 0x20000000
    5c80:	e593200c 	ldr	r2, [r3, #12]
    5c84:	e59f0058 	ldr	r0, [pc, #88]	; 5ce4 <cc_rx_ready_isr+0x70>
    5c88:	e2122802 	ands	r2, r2, #131072	; 0x20000
    5c8c:	0a000006 	beq	5cac <cc_rx_ready_isr+0x38>
    5c90:	e5932010 	ldr	r2, [r3, #16]
    5c94:	e5931014 	ldr	r1, [r3, #20]
    5c98:	e5903028 	ldr	r3, [r0, #40]	; 0x28
    5c9c:	e3530000 	cmp	r3, #0
    5ca0:	13a00005 	movne	r0, #5
    5ca4:	1a000005 	bne	5cc0 <cc_rx_ready_isr+0x4c>
    5ca8:	ea000006 	b	5cc8 <cc_rx_ready_isr+0x54>
    5cac:	e5931014 	ldr	r1, [r3, #20]
    5cb0:	e5903000 	ldr	r3, [r0]
    5cb4:	e3530000 	cmp	r3, #0
    5cb8:	0a000002 	beq	5cc8 <cc_rx_ready_isr+0x54>
    5cbc:	e1a00002 	mov	r0, r2
    5cc0:	ebffe99b 	bl	334 <schedule>
    5cc4:	ea000003 	b	5cd8 <cc_rx_ready_isr+0x64>
    5cc8:	e59f2018 	ldr	r2, [pc, #24]	; 5ce8 <cc_rx_ready_isr+0x74>
    5ccc:	e5923010 	ldr	r3, [r2, #16]
    5cd0:	e2833001 	add	r3, r3, #1
    5cd4:	e5823010 	str	r3, [r2, #16]
    5cd8:	e3a0341f 	mov	r3, #520093696	; 0x1f000000
    5cdc:	e5833030 	str	r3, [r3, #48]	; 0x30
    5ce0:	e8fd900f 	ldm	sp!, {r0, r1, r2, r3, ip, pc}^
    5ce4:	0040083c 	.word	0x0040083c
    5ce8:	00400694 	.word	0x00400694

00005cec <cc_rx_ready_fiqsr>:
    5cec:	e24ee004 	sub	lr, lr, #4
    5cf0:	e92d500f 	push	{r0, r1, r2, r3, ip, lr}
    5cf4:	e3a03202 	mov	r3, #536870912	; 0x20000000
    5cf8:	e593100c 	ldr	r1, [r3, #12]
    5cfc:	e59f201c 	ldr	r2, [pc, #28]	; 5d20 <cc_rx_ready_fiqsr+0x34>
    5d00:	e2111802 	ands	r1, r1, #131072	; 0x20000
    5d04:	15931010 	ldrne	r1, [r3, #16]
    5d08:	05930014 	ldreq	r0, [r3, #20]
    5d0c:	15930014 	ldrne	r0, [r3, #20]
    5d10:	05923000 	ldreq	r3, [r2]
    5d14:	15923028 	ldrne	r3, [r2, #40]	; 0x28
    5d18:	e12fff33 	blx	r3
    5d1c:	e8fd900f 	ldm	sp!, {r0, r1, r2, r3, ip, pc}^
    5d20:	0040083c 	.word	0x0040083c

00005d24 <cc_fr_ready_isr>:
    5d24:	e24ee004 	sub	lr, lr, #4
    5d28:	e92d500f 	push	{r0, r1, r2, r3, ip, lr}
    5d2c:	e3a03202 	mov	r3, #536870912	; 0x20000000
    5d30:	e593200c 	ldr	r2, [r3, #12]
    5d34:	e59f0054 	ldr	r0, [pc, #84]	; 5d90 <cc_fr_ready_isr+0x6c>
    5d38:	e2122802 	ands	r2, r2, #131072	; 0x20000
    5d3c:	0a00000a 	beq	5d6c <cc_fr_ready_isr+0x48>
    5d40:	e5932010 	ldr	r2, [r3, #16]
    5d44:	e5931014 	ldr	r1, [r3, #20]
    5d48:	e5903038 	ldr	r3, [r0, #56]	; 0x38
    5d4c:	e3530000 	cmp	r3, #0
    5d50:	13a00007 	movne	r0, #7
    5d54:	1a000009 	bne	5d80 <cc_fr_ready_isr+0x5c>
    5d58:	e59f2034 	ldr	r2, [pc, #52]	; 5d94 <cc_fr_ready_isr+0x70>
    5d5c:	e5923034 	ldr	r3, [r2, #52]	; 0x34
    5d60:	e2833001 	add	r3, r3, #1
    5d64:	e5823034 	str	r3, [r2, #52]	; 0x34
    5d68:	ea000005 	b	5d84 <cc_fr_ready_isr+0x60>
    5d6c:	e5931014 	ldr	r1, [r3, #20]
    5d70:	e5903030 	ldr	r3, [r0, #48]	; 0x30
    5d74:	e3530000 	cmp	r3, #0
    5d78:	0afffff6 	beq	5d58 <cc_fr_ready_isr+0x34>
    5d7c:	e3a00006 	mov	r0, #6
    5d80:	ebffe96b 	bl	334 <schedule>
    5d84:	e3a0341f 	mov	r3, #520093696	; 0x1f000000
    5d88:	e5833030 	str	r3, [r3, #48]	; 0x30
    5d8c:	e8fd900f 	ldm	sp!, {r0, r1, r2, r3, ip, pc}^
    5d90:	0040083c 	.word	0x0040083c
    5d94:	00400694 	.word	0x00400694

00005d98 <cc_fr_ready_fiqsr>:
    5d98:	e24ee004 	sub	lr, lr, #4
    5d9c:	e92d500f 	push	{r0, r1, r2, r3, ip, lr}
    5da0:	e3a03202 	mov	r3, #536870912	; 0x20000000
    5da4:	e593100c 	ldr	r1, [r3, #12]
    5da8:	e59f201c 	ldr	r2, [pc, #28]	; 5dcc <cc_fr_ready_fiqsr+0x34>
    5dac:	e2111802 	ands	r1, r1, #131072	; 0x20000
    5db0:	15931010 	ldrne	r1, [r3, #16]
    5db4:	05930014 	ldreq	r0, [r3, #20]
    5db8:	15930014 	ldrne	r0, [r3, #20]
    5dbc:	05923030 	ldreq	r3, [r2, #48]	; 0x30
    5dc0:	15923038 	ldrne	r3, [r2, #56]	; 0x38
    5dc4:	e12fff33 	blx	r3
    5dc8:	e8fd900f 	ldm	sp!, {r0, r1, r2, r3, ip, pc}^
    5dcc:	0040083c 	.word	0x0040083c

00005dd0 <cc_tx_empty_isr>:
    5dd0:	e24ee004 	sub	lr, lr, #4
    5dd4:	e92d501f 	push	{r0, r1, r2, r3, r4, ip, lr}
    5dd8:	e59f1074 	ldr	r1, [pc, #116]	; 5e54 <cc_tx_empty_isr+0x84>
    5ddc:	e3a03202 	mov	r3, #536870912	; 0x20000000
    5de0:	e3a02000 	mov	r2, #0
    5de4:	e3a0c00c 	mov	ip, #12
    5de8:	e5832000 	str	r2, [r3]
    5dec:	e5912000 	ldr	r2, [r1]
    5df0:	e5910004 	ldr	r0, [r1, #4]
    5df4:	e1520000 	cmp	r2, r0
    5df8:	0a00000e 	beq	5e38 <cc_tx_empty_isr+0x68>
    5dfc:	e5930000 	ldr	r0, [r3]
    5e00:	e3100101 	tst	r0, #1073741824	; 0x40000000
    5e04:	1a00000e 	bne	5e44 <cc_tx_empty_isr+0x74>
    5e08:	e020129c 	mla	r0, ip, r2, r1
    5e0c:	e2822001 	add	r2, r2, #1
    5e10:	e590e008 	ldr	lr, [r0, #8]
    5e14:	e590400c 	ldr	r4, [r0, #12]
    5e18:	e5900010 	ldr	r0, [r0, #16]
    5e1c:	e202200f 	and	r2, r2, #15
    5e20:	e3100802 	tst	r0, #131072	; 0x20000
    5e24:	e5812000 	str	r2, [r1]
    5e28:	e5830000 	str	r0, [r3]
    5e2c:	15834004 	strne	r4, [r3, #4]
    5e30:	e583e008 	str	lr, [r3, #8]
    5e34:	eaffffec 	b	5dec <cc_tx_empty_isr+0x1c>
    5e38:	e3a02b02 	mov	r2, #2048	; 0x800
    5e3c:	e3a0341f 	mov	r3, #520093696	; 0x1f000000
    5e40:	e5832014 	str	r2, [r3, #20]
    5e44:	e3a02001 	mov	r2, #1
    5e48:	e3a0341f 	mov	r3, #520093696	; 0x1f000000
    5e4c:	e5832030 	str	r2, [r3, #48]	; 0x30
    5e50:	e8fd901f 	ldm	sp!, {r0, r1, r2, r3, r4, ip, pc}^
    5e54:	0040087c 	.word	0x0040087c

00005e58 <dma_done_isr>:
    5e58:	e24ee004 	sub	lr, lr, #4
    5e5c:	e92d503f 	push	{r0, r1, r2, r3, r4, r5, ip, lr}
    5e60:	e59fe078 	ldr	lr, [pc, #120]	; 5ee0 <dma_done_isr+0x88>
    5e64:	e3a03008 	mov	r3, #8
    5e68:	e3a04101 	mov	r4, #1073741824	; 0x40000000
    5e6c:	e5843010 	str	r3, [r4, #16]
    5e70:	e59e0000 	ldr	r0, [lr]
    5e74:	e3a0c014 	mov	ip, #20
    5e78:	e023e09c 	mla	r3, ip, r0, lr
    5e7c:	e2800001 	add	r0, r0, #1
    5e80:	e5931008 	ldr	r1, [r3, #8]
    5e84:	e593200c 	ldr	r2, [r3, #12]
    5e88:	e200300f 	and	r3, r0, #15
    5e8c:	e59e0004 	ldr	r0, [lr, #4]
    5e90:	e58e3000 	str	r3, [lr]
    5e94:	e1530000 	cmp	r3, r0
    5e98:	0a000006 	beq	5eb8 <dma_done_isr+0x60>
    5e9c:	e023e39c 	mla	r3, ip, r3, lr
    5ea0:	e593c014 	ldr	ip, [r3, #20]
    5ea4:	e5930018 	ldr	r0, [r3, #24]
    5ea8:	e5933010 	ldr	r3, [r3, #16]
    5eac:	e5843004 	str	r3, [r4, #4]
    5eb0:	e584c008 	str	ip, [r4, #8]
    5eb4:	e584000c 	str	r0, [r4, #12]
    5eb8:	e59f3024 	ldr	r3, [pc, #36]	; 5ee4 <dma_done_isr+0x8c>
    5ebc:	e5933008 	ldr	r3, [r3, #8]
    5ec0:	e3530000 	cmp	r3, #0
    5ec4:	0a000001 	beq	5ed0 <dma_done_isr+0x78>
    5ec8:	e3a00001 	mov	r0, #1
    5ecc:	ebffe918 	bl	334 <schedule>
    5ed0:	e3a02001 	mov	r2, #1
    5ed4:	e3a0341f 	mov	r3, #520093696	; 0x1f000000
    5ed8:	e5832030 	str	r2, [r3, #48]	; 0x30
    5edc:	e8fd903f 	ldm	sp!, {r0, r1, r2, r3, r4, r5, ip, pc}^
    5ee0:	004006e8 	.word	0x004006e8
    5ee4:	0040083c 	.word	0x0040083c

00005ee8 <dma_done_fiqsr>:
    5ee8:	e24ee004 	sub	lr, lr, #4
    5eec:	e92d503f 	push	{r0, r1, r2, r3, r4, r5, ip, lr}
    5ef0:	e59fe060 	ldr	lr, [pc, #96]	; 5f58 <dma_done_fiqsr+0x70>
    5ef4:	e3a03008 	mov	r3, #8
    5ef8:	e3a04101 	mov	r4, #1073741824	; 0x40000000
    5efc:	e5843010 	str	r3, [r4, #16]
    5f00:	e59e2000 	ldr	r2, [lr]
    5f04:	e3a0c014 	mov	ip, #20
    5f08:	e023e29c 	mla	r3, ip, r2, lr
    5f0c:	e2822001 	add	r2, r2, #1
    5f10:	e5930008 	ldr	r0, [r3, #8]
    5f14:	e593100c 	ldr	r1, [r3, #12]
    5f18:	e202300f 	and	r3, r2, #15
    5f1c:	e59e2004 	ldr	r2, [lr, #4]
    5f20:	e58e3000 	str	r3, [lr]
    5f24:	e1530002 	cmp	r3, r2
    5f28:	0a000006 	beq	5f48 <dma_done_fiqsr+0x60>
    5f2c:	e023e39c 	mla	r3, ip, r3, lr
    5f30:	e593c014 	ldr	ip, [r3, #20]
    5f34:	e5932018 	ldr	r2, [r3, #24]
    5f38:	e5933010 	ldr	r3, [r3, #16]
    5f3c:	e5843004 	str	r3, [r4, #4]
    5f40:	e584c008 	str	ip, [r4, #8]
    5f44:	e584200c 	str	r2, [r4, #12]
    5f48:	e59f300c 	ldr	r3, [pc, #12]	; 5f5c <dma_done_fiqsr+0x74>
    5f4c:	e5933008 	ldr	r3, [r3, #8]
    5f50:	e12fff33 	blx	r3
    5f54:	e8fd903f 	ldm	sp!, {r0, r1, r2, r3, r4, r5, ip, pc}^
    5f58:	004006e8 	.word	0x004006e8
    5f5c:	0040083c 	.word	0x0040083c

00005f60 <timer1_isr>:
    5f60:	e24ee004 	sub	lr, lr, #4
    5f64:	e92d500f 	push	{r0, r1, r2, r3, ip, lr}
    5f68:	e3a02001 	mov	r2, #1
    5f6c:	e3a03421 	mov	r3, #553648128	; 0x21000000
    5f70:	e583200c 	str	r2, [r3, #12]
    5f74:	e59f3060 	ldr	r3, [pc, #96]	; 5fdc <timer1_isr+0x7c>
    5f78:	e5931000 	ldr	r1, [r3]
    5f7c:	e0811002 	add	r1, r1, r2
    5f80:	e5831000 	str	r1, [r3]
    5f84:	e59f3054 	ldr	r3, [pc, #84]	; 5fe0 <timer1_isr+0x80>
    5f88:	e5933010 	ldr	r3, [r3, #16]
    5f8c:	e3530000 	cmp	r3, #0
    5f90:	0a00000d 	beq	5fcc <timer1_isr+0x6c>
    5f94:	e59f3048 	ldr	r3, [pc, #72]	; 5fe4 <timer1_isr+0x84>
    5f98:	e5932038 	ldr	r2, [r3, #56]	; 0x38
    5f9c:	e3520000 	cmp	r2, #0
    5fa0:	0a000006 	beq	5fc0 <timer1_isr+0x60>
    5fa4:	e5932044 	ldr	r2, [r3, #68]	; 0x44
    5fa8:	e5930040 	ldr	r0, [r3, #64]	; 0x40
    5fac:	e2822001 	add	r2, r2, #1
    5fb0:	e5832044 	str	r2, [r3, #68]	; 0x44
    5fb4:	e593203c 	ldr	r2, [r3, #60]	; 0x3c
    5fb8:	e1520000 	cmp	r2, r0
    5fbc:	85832040 	strhi	r2, [r3, #64]	; 0x40
    5fc0:	e3a02000 	mov	r2, #0
    5fc4:	e3a00002 	mov	r0, #2
    5fc8:	ebffe8d9 	bl	334 <schedule>
    5fcc:	e3a02001 	mov	r2, #1
    5fd0:	e3a0341f 	mov	r3, #520093696	; 0x1f000000
    5fd4:	e5832030 	str	r2, [r3, #48]	; 0x30
    5fd8:	e8fd900f 	ldm	sp!, {r0, r1, r2, r3, ip, pc}^
    5fdc:	00400834 	.word	0x00400834
    5fe0:	0040083c 	.word	0x0040083c
    5fe4:	00400694 	.word	0x00400694

00005fe8 <timer1_fiqsr>:
    5fe8:	e24ee004 	sub	lr, lr, #4
    5fec:	e92d500f 	push	{r0, r1, r2, r3, ip, lr}
    5ff0:	e3a02001 	mov	r2, #1
    5ff4:	e3a03421 	mov	r3, #553648128	; 0x21000000
    5ff8:	e583200c 	str	r2, [r3, #12]
    5ffc:	e59f301c 	ldr	r3, [pc, #28]	; 6020 <timer1_fiqsr+0x38>
    6000:	e3a01000 	mov	r1, #0
    6004:	e5930000 	ldr	r0, [r3]
    6008:	e0800002 	add	r0, r0, r2
    600c:	e5830000 	str	r0, [r3]
    6010:	e59f300c 	ldr	r3, [pc, #12]	; 6024 <timer1_fiqsr+0x3c>
    6014:	e5933010 	ldr	r3, [r3, #16]
    6018:	e12fff33 	blx	r3
    601c:	e8fd900f 	ldm	sp!, {r0, r1, r2, r3, ip, pc}^
    6020:	00400834 	.word	0x00400834
    6024:	0040083c 	.word	0x0040083c

00006028 <soft_int_isr>:
    6028:	e24ee004 	sub	lr, lr, #4
    602c:	e92d500f 	push	{r0, r1, r2, r3, ip, lr}
    6030:	e3a0341f 	mov	r3, #520093696	; 0x1f000000
    6034:	e3a02002 	mov	r2, #2
    6038:	e583201c 	str	r2, [r3, #28]
    603c:	e59f303c 	ldr	r3, [pc, #60]	; 6080 <soft_int_isr+0x58>
    6040:	e5933020 	ldr	r3, [r3, #32]
    6044:	e3530000 	cmp	r3, #0
    6048:	0a000005 	beq	6064 <soft_int_isr+0x3c>
    604c:	e59f3030 	ldr	r3, [pc, #48]	; 6084 <soft_int_isr+0x5c>
    6050:	e3a00004 	mov	r0, #4
    6054:	e5932000 	ldr	r2, [r3]
    6058:	e59f3028 	ldr	r3, [pc, #40]	; 6088 <soft_int_isr+0x60>
    605c:	e5931000 	ldr	r1, [r3]
    6060:	ebffe8b3 	bl	334 <schedule>
    6064:	e59f3020 	ldr	r3, [pc, #32]	; 608c <soft_int_isr+0x64>
    6068:	e3a02000 	mov	r2, #0
    606c:	e5c32000 	strb	r2, [r3]
    6070:	e3a02001 	mov	r2, #1
    6074:	e3a0341f 	mov	r3, #520093696	; 0x1f000000
    6078:	e5832030 	str	r2, [r3, #48]	; 0x30
    607c:	e8fd900f 	ldm	sp!, {r0, r1, r2, r3, ip, pc}^
    6080:	0040083c 	.word	0x0040083c
    6084:	004006e0 	.word	0x004006e0
    6088:	00400838 	.word	0x00400838
    608c:	00400228 	.word	0x00400228

00006090 <soft_int_fiqsr>:
    6090:	e24ee004 	sub	lr, lr, #4
    6094:	e92d500f 	push	{r0, r1, r2, r3, ip, lr}
    6098:	e3a02002 	mov	r2, #2
    609c:	e3a0341f 	mov	r3, #520093696	; 0x1f000000
    60a0:	e583201c 	str	r2, [r3, #28]
    60a4:	e59f2024 	ldr	r2, [pc, #36]	; 60d0 <soft_int_fiqsr+0x40>
    60a8:	e59f3024 	ldr	r3, [pc, #36]	; 60d4 <soft_int_fiqsr+0x44>
    60ac:	e5921000 	ldr	r1, [r2]
    60b0:	e59f2020 	ldr	r2, [pc, #32]	; 60d8 <soft_int_fiqsr+0x48>
    60b4:	e5933020 	ldr	r3, [r3, #32]
    60b8:	e5920000 	ldr	r0, [r2]
    60bc:	e12fff33 	blx	r3
    60c0:	e59f3014 	ldr	r3, [pc, #20]	; 60dc <soft_int_fiqsr+0x4c>
    60c4:	e3a02000 	mov	r2, #0
    60c8:	e5c32000 	strb	r2, [r3]
    60cc:	e8fd900f 	ldm	sp!, {r0, r1, r2, r3, ip, pc}^
    60d0:	004006e0 	.word	0x004006e0
    60d4:	0040083c 	.word	0x0040083c
    60d8:	00400838 	.word	0x00400838
    60dc:	00400228 	.word	0x00400228

000060e0 <__itoa>:
    60e0:	e2423002 	sub	r3, r2, #2
    60e4:	e3530022 	cmp	r3, #34	; 0x22
    60e8:	8a00000f 	bhi	612c <__itoa+0x4c>
    60ec:	e1a03fa0 	lsr	r3, r0, #31
    60f0:	e352000a 	cmp	r2, #10
    60f4:	13a03000 	movne	r3, #0
    60f8:	02033001 	andeq	r3, r3, #1
    60fc:	e3530000 	cmp	r3, #0
    6100:	13a0302d 	movne	r3, #45	; 0x2d
    6104:	e92d4010 	push	{r4, lr}
    6108:	15c13000 	strbne	r3, [r1]
    610c:	13a03001 	movne	r3, #1
    6110:	e1a04001 	mov	r4, r1
    6114:	12600000 	rsbne	r0, r0, #0
    6118:	e0811003 	add	r1, r1, r3
    611c:	eb000042 	bl	622c <__utoa>
    6120:	e1a00004 	mov	r0, r4
    6124:	e8bd4010 	pop	{r4, lr}
    6128:	e12fff1e 	bx	lr
    612c:	e3a00000 	mov	r0, #0
    6130:	e5c10000 	strb	r0, [r1]
    6134:	e12fff1e 	bx	lr

00006138 <itoa>:
    6138:	eaffffe8 	b	60e0 <__itoa>

0000613c <memcpy>:
    613c:	e352000f 	cmp	r2, #15
    6140:	e92d40f0 	push	{r4, r5, r6, r7, lr}
    6144:	9a000029 	bls	61f0 <memcpy+0xb4>
    6148:	e1813000 	orr	r3, r1, r0
    614c:	e3130003 	tst	r3, #3
    6150:	1a000031 	bne	621c <memcpy+0xe0>
    6154:	e1a0e002 	mov	lr, r2
    6158:	e280c010 	add	ip, r0, #16
    615c:	e2813010 	add	r3, r1, #16
    6160:	e5137010 	ldr	r7, [r3, #-16]
    6164:	e513600c 	ldr	r6, [r3, #-12]
    6168:	e5135008 	ldr	r5, [r3, #-8]
    616c:	e5134004 	ldr	r4, [r3, #-4]
    6170:	e24ee010 	sub	lr, lr, #16
    6174:	e35e000f 	cmp	lr, #15
    6178:	e50c7010 	str	r7, [ip, #-16]
    617c:	e50c600c 	str	r6, [ip, #-12]
    6180:	e50c5008 	str	r5, [ip, #-8]
    6184:	e50c4004 	str	r4, [ip, #-4]
    6188:	e2833010 	add	r3, r3, #16
    618c:	e28cc010 	add	ip, ip, #16
    6190:	8afffff2 	bhi	6160 <memcpy+0x24>
    6194:	e2423010 	sub	r3, r2, #16
    6198:	e3c3300f 	bic	r3, r3, #15
    619c:	e202600f 	and	r6, r2, #15
    61a0:	e2833010 	add	r3, r3, #16
    61a4:	e3560003 	cmp	r6, #3
    61a8:	e0811003 	add	r1, r1, r3
    61ac:	e0803003 	add	r3, r0, r3
    61b0:	9a00001b 	bls	6224 <memcpy+0xe8>
    61b4:	e1a04001 	mov	r4, r1
    61b8:	e1a0c006 	mov	ip, r6
    61bc:	e243e004 	sub	lr, r3, #4
    61c0:	e24cc004 	sub	ip, ip, #4
    61c4:	e4945004 	ldr	r5, [r4], #4
    61c8:	e35c0003 	cmp	ip, #3
    61cc:	e5ae5004 	str	r5, [lr, #4]!
    61d0:	8afffffa 	bhi	61c0 <memcpy+0x84>
    61d4:	e246c004 	sub	ip, r6, #4
    61d8:	e3ccc003 	bic	ip, ip, #3
    61dc:	e28cc004 	add	ip, ip, #4
    61e0:	e083300c 	add	r3, r3, ip
    61e4:	e081100c 	add	r1, r1, ip
    61e8:	e2022003 	and	r2, r2, #3
    61ec:	ea000000 	b	61f4 <memcpy+0xb8>
    61f0:	e1a03000 	mov	r3, r0
    61f4:	e3520000 	cmp	r2, #0
    61f8:	0a000005 	beq	6214 <memcpy+0xd8>
    61fc:	e2433001 	sub	r3, r3, #1
    6200:	e0812002 	add	r2, r1, r2
    6204:	e4d1c001 	ldrb	ip, [r1], #1
    6208:	e1510002 	cmp	r1, r2
    620c:	e5e3c001 	strb	ip, [r3, #1]!
    6210:	1afffffb 	bne	6204 <memcpy+0xc8>
    6214:	e8bd40f0 	pop	{r4, r5, r6, r7, lr}
    6218:	e12fff1e 	bx	lr
    621c:	e1a03000 	mov	r3, r0
    6220:	eafffff5 	b	61fc <memcpy+0xc0>
    6224:	e1a02006 	mov	r2, r6
    6228:	eafffff1 	b	61f4 <memcpy+0xb8>

0000622c <__utoa>:
    622c:	e92d43f0 	push	{r4, r5, r6, r7, r8, r9, lr}
    6230:	e24dd02c 	sub	sp, sp, #44	; 0x2c
    6234:	e1a0c00d 	mov	ip, sp
    6238:	e1a07002 	mov	r7, r2
    623c:	e59fe0c0 	ldr	lr, [pc, #192]	; 6304 <__utoa+0xd8>
    6240:	e1a09001 	mov	r9, r1
    6244:	e1a04000 	mov	r4, r0
    6248:	e8be000f 	ldm	lr!, {r0, r1, r2, r3}
    624c:	e8ac000f 	stmia	ip!, {r0, r1, r2, r3}
    6250:	e8be000f 	ldm	lr!, {r0, r1, r2, r3}
    6254:	e8ac000f 	stmia	ip!, {r0, r1, r2, r3}
    6258:	e89e0003 	ldm	lr, {r0, r1}
    625c:	e2473002 	sub	r3, r7, #2
    6260:	e3530022 	cmp	r3, #34	; 0x22
    6264:	e48c0004 	str	r0, [ip], #4
    6268:	83a00000 	movhi	r0, #0
    626c:	e5cc1000 	strb	r1, [ip]
    6270:	85c90000 	strbhi	r0, [r9]
    6274:	8a00001f 	bhi	62f8 <__utoa+0xcc>
    6278:	e2496001 	sub	r6, r9, #1
    627c:	e1a08006 	mov	r8, r6
    6280:	e3a05000 	mov	r5, #0
    6284:	ea000000 	b	628c <__utoa+0x60>
    6288:	e1a05003 	mov	r5, r3
    628c:	e1a00004 	mov	r0, r4
    6290:	e1a01007 	mov	r1, r7
    6294:	eb000058 	bl	63fc <__aeabi_uidivmod>
    6298:	e28d3028 	add	r3, sp, #40	; 0x28
    629c:	e0831001 	add	r1, r3, r1
    62a0:	e5513028 	ldrb	r3, [r1, #-40]	; 0xffffffd8
    62a4:	e1a00004 	mov	r0, r4
    62a8:	e5e83001 	strb	r3, [r8, #1]!
    62ac:	e1a01007 	mov	r1, r7
    62b0:	eb000014 	bl	6308 <__aeabi_uidiv>
    62b4:	e2504000 	subs	r4, r0, #0
    62b8:	e2853001 	add	r3, r5, #1
    62bc:	1afffff1 	bne	6288 <__utoa+0x5c>
    62c0:	e3550000 	cmp	r5, #0
    62c4:	e7c94003 	strb	r4, [r9, r3]
    62c8:	10892005 	addne	r2, r9, r5
    62cc:	11a03004 	movne	r3, r4
    62d0:	0a000007 	beq	62f4 <__utoa+0xc8>
    62d4:	e2833001 	add	r3, r3, #1
    62d8:	e5f61001 	ldrb	r1, [r6, #1]!
    62dc:	e5d20000 	ldrb	r0, [r2]
    62e0:	e063c005 	rsb	ip, r3, r5
    62e4:	e153000c 	cmp	r3, ip
    62e8:	e5c60000 	strb	r0, [r6]
    62ec:	e4421001 	strb	r1, [r2], #-1
    62f0:	bafffff7 	blt	62d4 <__utoa+0xa8>
    62f4:	e1a00009 	mov	r0, r9
    62f8:	e28dd02c 	add	sp, sp, #44	; 0x2c
    62fc:	e8bd43f0 	pop	{r4, r5, r6, r7, r8, r9, lr}
    6300:	e12fff1e 	bx	lr
    6304:	000074a8 	.word	0x000074a8

00006308 <__aeabi_uidiv>:
    6308:	e2512001 	subs	r2, r1, #1
    630c:	012fff1e 	bxeq	lr
    6310:	3a000036 	bcc	63f0 <__aeabi_uidiv+0xe8>
    6314:	e1500001 	cmp	r0, r1
    6318:	9a000022 	bls	63a8 <__aeabi_uidiv+0xa0>
    631c:	e1110002 	tst	r1, r2
    6320:	0a000023 	beq	63b4 <__aeabi_uidiv+0xac>
    6324:	e311020e 	tst	r1, #-536870912	; 0xe0000000
    6328:	01a01181 	lsleq	r1, r1, #3
    632c:	03a03008 	moveq	r3, #8
    6330:	13a03001 	movne	r3, #1
    6334:	e3510201 	cmp	r1, #268435456	; 0x10000000
    6338:	31510000 	cmpcc	r1, r0
    633c:	31a01201 	lslcc	r1, r1, #4
    6340:	31a03203 	lslcc	r3, r3, #4
    6344:	3afffffa 	bcc	6334 <__aeabi_uidiv+0x2c>
    6348:	e3510102 	cmp	r1, #-2147483648	; 0x80000000
    634c:	31510000 	cmpcc	r1, r0
    6350:	31a01081 	lslcc	r1, r1, #1
    6354:	31a03083 	lslcc	r3, r3, #1
    6358:	3afffffa 	bcc	6348 <__aeabi_uidiv+0x40>
    635c:	e3a02000 	mov	r2, #0
    6360:	e1500001 	cmp	r0, r1
    6364:	20400001 	subcs	r0, r0, r1
    6368:	21822003 	orrcs	r2, r2, r3
    636c:	e15000a1 	cmp	r0, r1, lsr #1
    6370:	204000a1 	subcs	r0, r0, r1, lsr #1
    6374:	218220a3 	orrcs	r2, r2, r3, lsr #1
    6378:	e1500121 	cmp	r0, r1, lsr #2
    637c:	20400121 	subcs	r0, r0, r1, lsr #2
    6380:	21822123 	orrcs	r2, r2, r3, lsr #2
    6384:	e15001a1 	cmp	r0, r1, lsr #3
    6388:	204001a1 	subcs	r0, r0, r1, lsr #3
    638c:	218221a3 	orrcs	r2, r2, r3, lsr #3
    6390:	e3500000 	cmp	r0, #0
    6394:	11b03223 	lsrsne	r3, r3, #4
    6398:	11a01221 	lsrne	r1, r1, #4
    639c:	1affffef 	bne	6360 <__aeabi_uidiv+0x58>
    63a0:	e1a00002 	mov	r0, r2
    63a4:	e12fff1e 	bx	lr
    63a8:	03a00001 	moveq	r0, #1
    63ac:	13a00000 	movne	r0, #0
    63b0:	e12fff1e 	bx	lr
    63b4:	e3510801 	cmp	r1, #65536	; 0x10000
    63b8:	21a01821 	lsrcs	r1, r1, #16
    63bc:	23a02010 	movcs	r2, #16
    63c0:	33a02000 	movcc	r2, #0
    63c4:	e3510c01 	cmp	r1, #256	; 0x100
    63c8:	21a01421 	lsrcs	r1, r1, #8
    63cc:	22822008 	addcs	r2, r2, #8
    63d0:	e3510010 	cmp	r1, #16
    63d4:	21a01221 	lsrcs	r1, r1, #4
    63d8:	22822004 	addcs	r2, r2, #4
    63dc:	e3510004 	cmp	r1, #4
    63e0:	82822003 	addhi	r2, r2, #3
    63e4:	908220a1 	addls	r2, r2, r1, lsr #1
    63e8:	e1a00230 	lsr	r0, r0, r2
    63ec:	e12fff1e 	bx	lr
    63f0:	e3500000 	cmp	r0, #0
    63f4:	13e00000 	mvnne	r0, #0
    63f8:	eafffbd0 	b	5340 <__aeabi_idiv0>

000063fc <__aeabi_uidivmod>:
    63fc:	e3510000 	cmp	r1, #0
    6400:	0afffffa 	beq	63f0 <__aeabi_uidiv+0xe8>
    6404:	e92d4003 	push	{r0, r1, lr}
    6408:	ebffffbe 	bl	6308 <__aeabi_uidiv>
    640c:	e8bd4006 	pop	{r1, r2, lr}
    6410:	e0030092 	mul	r3, r2, r0
    6414:	e0411003 	sub	r1, r1, r3
    6418:	e12fff1e 	bx	lr
    641c:	00000000 	andeq	r0, r0, r0

00006420 <__spin1_pause_from_arm>:
    6420:	e51ff004 	ldr	pc, [pc, #-4]	; 6424 <__spin1_pause_from_arm+0x4>
    6424:	0000551d 	.word	0x0000551d

00006428 <__spin1_msg_free_from_arm>:
    6428:	e51ff004 	ldr	pc, [pc, #-4]	; 642c <__spin1_msg_free_from_arm+0x4>
    642c:	00005345 	.word	0x00005345

00006430 <__sark_msg_free_from_arm>:
    6430:	e51ff004 	ldr	pc, [pc, #-4]	; 6434 <__sark_msg_free_from_arm+0x4>
    6434:	00004605 	.word	0x00004605

00006438 <__spin1_send_sdp_msg_from_arm>:
    6438:	e51ff004 	ldr	pc, [pc, #-4]	; 643c <__spin1_send_sdp_msg_from_arm+0x4>
    643c:	0000534d 	.word	0x0000534d

00006440 <__spin1_exit_from_arm>:
    6440:	e51ff004 	ldr	pc, [pc, #-4]	; 6444 <__spin1_exit_from_arm+0x4>
    6444:	00005761 	.word	0x00005761

00006448 <__spin1_start_paused_from_arm>:
    6448:	e51ff004 	ldr	pc, [pc, #-4]	; 644c <__spin1_start_paused_from_arm+0x4>
    644c:	000059b9 	.word	0x000059b9

00006450 <__init_array_end>:
    6450:	726f6f63 	.word	0x726f6f63
    6454:	616e6964 	.word	0x616e6964
    6458:	2e726f74 	.word	0x2e726f74
    645c:	00000063 	.word	0x00000063
    6460:	464e495b 	.word	0x464e495b
    6464:	20205d4f 	.word	0x20205d4f
    6468:	25282020 	.word	0x25282020
    646c:	34253a73 	.word	0x34253a73
    6470:	203a2964 	.word	0x203a2964
    6474:	444e4553 	.word	0x444e4553
    6478:	52545320 	.word	0x52545320
    647c:	0a474e49 	.word	0x0a474e49
    6480:	00000000 	.word	0x00000000
    6484:	464e495b 	.word	0x464e495b
    6488:	20205d4f 	.word	0x20205d4f
    648c:	25282020 	.word	0x25282020
    6490:	34253a73 	.word	0x34253a73
    6494:	203a2964 	.word	0x203a2964
    6498:	203a314d 	.word	0x203a314d
    649c:	000a6425 	.word	0x000a6425
    64a0:	464e495b 	.word	0x464e495b
    64a4:	20205d4f 	.word	0x20205d4f
    64a8:	25282020 	.word	0x25282020
    64ac:	34253a73 	.word	0x34253a73
    64b0:	203a2964 	.word	0x203a2964
    64b4:	203a324d 	.word	0x203a324d
    64b8:	000a6425 	.word	0x000a6425
    64bc:	464e495b 	.word	0x464e495b
    64c0:	20205d4f 	.word	0x20205d4f
    64c4:	25282020 	.word	0x25282020
    64c8:	34253a73 	.word	0x34253a73
    64cc:	203a2964 	.word	0x203a2964
    64d0:	203a334d 	.word	0x203a334d
    64d4:	000a6425 	.word	0x000a6425
    64d8:	464e495b 	.word	0x464e495b
    64dc:	20205d4f 	.word	0x20205d4f
    64e0:	25282020 	.word	0x25282020
    64e4:	34253a73 	.word	0x34253a73
    64e8:	203a2964 	.word	0x203a2964
    64ec:	203a344d 	.word	0x203a344d
    64f0:	000a6425 	.word	0x000a6425
    64f4:	464e495b 	.word	0x464e495b
    64f8:	20205d4f 	.word	0x20205d4f
    64fc:	25282020 	.word	0x25282020
    6500:	34253a73 	.word	0x34253a73
    6504:	203a2964 	.word	0x203a2964
    6508:	203a354d 	.word	0x203a354d
    650c:	000a6425 	.word	0x000a6425
    6510:	464e495b 	.word	0x464e495b
    6514:	20205d4f 	.word	0x20205d4f
    6518:	25282020 	.word	0x25282020
    651c:	34253a73 	.word	0x34253a73
    6520:	203a2964 	.word	0x203a2964
    6524:	57524f46 	.word	0x57524f46
    6528:	0a445241 	.word	0x0a445241
    652c:	00000000 	.word	0x00000000
    6530:	464e495b 	.word	0x464e495b
    6534:	20205d4f 	.word	0x20205d4f
    6538:	25282020 	.word	0x25282020
    653c:	34253a73 	.word	0x34253a73
    6540:	203a2964 	.word	0x203a2964
    6544:	4e474953 	.word	0x4e474953
    6548:	000a4c41 	.word	0x000a4c41
    654c:	464e495b 	.word	0x464e495b
    6550:	20205d4f 	.word	0x20205d4f
    6554:	25282020 	.word	0x25282020
    6558:	34253a73 	.word	0x34253a73
    655c:	203a2964 	.word	0x203a2964
    6560:	434e5546 	.word	0x434e5546
    6564:	4e4f4954 	.word	0x4e4f4954
    6568:	4749535f 	.word	0x4749535f
    656c:	0a4c414e 	.word	0x0a4c414e
    6570:	00000000 	.word	0x00000000
    6574:	464e495b 	.word	0x464e495b
    6578:	20205d4f 	.word	0x20205d4f
    657c:	25282020 	.word	0x25282020
    6580:	34253a73 	.word	0x34253a73
    6584:	203a2964 	.word	0x203a2964
    6588:	20444e45 	.word	0x20444e45
    658c:	4920464f 	.word	0x4920464f
    6590:	53412044 	.word	0x53412044
    6594:	4e474953 	.word	0x4e474953
    6598:	544e454d 	.word	0x544e454d
    659c:	4f525020 	.word	0x4f525020
    65a0:	53534543 	.word	0x53534543
    65a4:	0000000a 	.word	0x0000000a
    65a8:	464e495b 	.word	0x464e495b
    65ac:	20205d4f 	.word	0x20205d4f
    65b0:	25282020 	.word	0x25282020
    65b4:	34253a73 	.word	0x34253a73
    65b8:	203a2964 	.word	0x203a2964
    65bc:	61702d2d 	.word	0x61702d2d
    65c0:	67616b63 	.word	0x67616b63
    65c4:	72612065 	.word	0x72612065
    65c8:	65766972 	.word	0x65766972
    65cc:	202d2d64 	.word	0x202d2d64
    65d0:	000a6425 	.word	0x000a6425
    65d4:	464e495b 	.word	0x464e495b
    65d8:	20205d4f 	.word	0x20205d4f
    65dc:	25282020 	.word	0x25282020
    65e0:	34253a73 	.word	0x34253a73
    65e4:	203a2964 	.word	0x203a2964
    65e8:	75737349 	.word	0x75737349
    65ec:	20676e69 	.word	0x20676e69
    65f0:	72655627 	.word	0x72655627
    65f4:	27786574 	.word	0x27786574
    65f8:	6f726620 	.word	0x6f726620
    65fc:	6863206d 	.word	0x6863206d
    6600:	25207069 	.word	0x25207069
    6604:	63202c64 	.word	0x63202c64
    6608:	2065726f 	.word	0x2065726f
    660c:	000a6425 	.word	0x000a6425
    6610:	464e495b 	.word	0x464e495b
    6614:	20205d4f 	.word	0x20205d4f
    6618:	25282020 	.word	0x25282020
    661c:	34253a73 	.word	0x34253a73
    6620:	203a2964 	.word	0x203a2964
    6624:	636f7250 	.word	0x636f7250
    6628:	6f737365 	.word	0x6f737365
    662c:	64692072 	.word	0x64692072
    6630:	6425203a 	.word	0x6425203a
    6634:	0000000a 	.word	0x0000000a
    6638:	464e495b 	.word	0x464e495b
    663c:	20205d4f 	.word	0x20205d4f
    6640:	25282020 	.word	0x25282020
    6644:	34253a73 	.word	0x34253a73
    6648:	203a2964 	.word	0x203a2964
    664c:	5f6d754e 	.word	0x5f6d754e
    6650:	736c6f63 	.word	0x736c6f63
    6654:	6425203a 	.word	0x6425203a
    6658:	0000000a 	.word	0x0000000a
    665c:	464e495b 	.word	0x464e495b
    6660:	20205d4f 	.word	0x20205d4f
    6664:	25282020 	.word	0x25282020
    6668:	34253a73 	.word	0x34253a73
    666c:	203a2964 	.word	0x203a2964
    6670:	5f6d754e 	.word	0x5f6d754e
    6674:	73776f72 	.word	0x73776f72
    6678:	6425203a 	.word	0x6425203a
    667c:	0000000a 	.word	0x0000000a
    6680:	464e495b 	.word	0x464e495b
    6684:	20205d4f 	.word	0x20205d4f
    6688:	25282020 	.word	0x25282020
    668c:	34253a73 	.word	0x34253a73
    6690:	203a2964 	.word	0x203a2964
    6694:	69727473 	.word	0x69727473
    6698:	735f676e 	.word	0x735f676e
    669c:	3a657a69 	.word	0x3a657a69
    66a0:	0a642520 	.word	0x0a642520
    66a4:	00000000 	.word	0x00000000
    66a8:	464e495b 	.word	0x464e495b
    66ac:	20205d4f 	.word	0x20205d4f
    66b0:	25282020 	.word	0x25282020
    66b4:	34253a73 	.word	0x34253a73
    66b8:	203a2964 	.word	0x203a2964
    66bc:	67616c66 	.word	0x67616c66
    66c0:	25203a20 	.word	0x25203a20
    66c4:	00000a64 	.word	0x00000a64
    66c8:	464e495b 	.word	0x464e495b
    66cc:	20205d4f 	.word	0x20205d4f
    66d0:	25282020 	.word	0x25282020
    66d4:	34253a73 	.word	0x34253a73
    66d8:	203a2964 	.word	0x203a2964
    66dc:	74696e69 	.word	0x74696e69
    66e0:	5f657461 	.word	0x5f657461
    66e4:	646e6573 	.word	0x646e6573
    66e8:	25203a20 	.word	0x25203a20
    66ec:	00000a64 	.word	0x00000a64
    66f0:	464e495b 	.word	0x464e495b
    66f4:	20205d4f 	.word	0x20205d4f
    66f8:	25282020 	.word	0x25282020
    66fc:	34253a73 	.word	0x34253a73
    6700:	203a2964 	.word	0x203a2964
    6704:	636e7566 	.word	0x636e7566
    6708:	6e6f6974 	.word	0x6e6f6974
    670c:	3a64695f 	.word	0x3a64695f
    6710:	0a642520 	.word	0x0a642520
    6714:	00000000 	.word	0x00000000
    6718:	464e495b 	.word	0x464e495b
    671c:	20205d4f 	.word	0x20205d4f
    6720:	25282020 	.word	0x25282020
    6724:	34253a73 	.word	0x34253a73
    6728:	203a2964 	.word	0x203a2964
    672c:	74206e6f 	.word	0x74206e6f
    6730:	206b6369 	.word	0x206b6369
    6734:	6f206425 	.word	0x6f206425
    6738:	64252066 	.word	0x64252066
    673c:	0000000a 	.word	0x0000000a
    6740:	464e495b 	.word	0x464e495b
    6744:	20205d4f 	.word	0x20205d4f
    6748:	25282020 	.word	0x25282020
    674c:	34253a73 	.word	0x34253a73
    6750:	203a2964 	.word	0x203a2964
    6754:	656d6974 	.word	0x656d6974
    6758:	0a74756f 	.word	0x0a74756f
    675c:	00000000 	.word	0x00000000
    6760:	464e495b 	.word	0x464e495b
    6764:	20205d4f 	.word	0x20205d4f
    6768:	25282020 	.word	0x25282020
    676c:	34253a73 	.word	0x34253a73
    6770:	203a2964 	.word	0x203a2964
    6774:	61647075 	.word	0x61647075
    6778:	676e6974 	.word	0x676e6974
    677c:	63657220 	.word	0x63657220
    6780:	6964726f 	.word	0x6964726f
    6784:	7220676e 	.word	0x7220676e
    6788:	6f696765 	.word	0x6f696765
    678c:	000a736e 	.word	0x000a736e
    6790:	464e495b 	.word	0x464e495b
    6794:	20205d4f 	.word	0x20205d4f
    6798:	25282020 	.word	0x25282020
    679c:	34253a73 	.word	0x34253a73
    67a0:	203a2964 	.word	0x203a2964
    67a4:	72617473 	.word	0x72617473
    67a8:	676e6974 	.word	0x676e6974
    67ac:	72657620 	.word	0x72657620
    67b0:	20786574 	.word	0x20786574
    67b4:	74736574 	.word	0x74736574
    67b8:	00000a0a 	.word	0x00000a0a
    67bc:	464e495b 	.word	0x464e495b
    67c0:	20205d4f 	.word	0x20205d4f
    67c4:	25282020 	.word	0x25282020
    67c8:	34253a73 	.word	0x34253a73
    67cc:	203a2964 	.word	0x203a2964
    67d0:	6c696166 	.word	0x6c696166
    67d4:	74206465 	.word	0x74206465
    67d8:	6572206f 	.word	0x6572206f
    67dc:	74206461 	.word	0x74206461
    67e0:	64206568 	.word	0x64206568
    67e4:	20617461 	.word	0x20617461
    67e8:	63657073 	.word	0x63657073
    67ec:	61656820 	.word	0x61656820
    67f0:	0a726564 	.word	0x0a726564
    67f4:	00000000 	.word	0x00000000
    67f8:	464e495b 	.word	0x464e495b
    67fc:	20205d4f 	.word	0x20205d4f
    6800:	25282020 	.word	0x25282020
    6804:	34253a73 	.word	0x34253a73
    6808:	203a2964 	.word	0x203a2964
    680c:	626d756e 	.word	0x626d756e
    6810:	6b207265 	.word	0x6b207265
    6814:	0a737965 	.word	0x0a737965
    6818:	00000000 	.word	0x00000000
    681c:	464e495b 	.word	0x464e495b
    6820:	20205d4f 	.word	0x20205d4f
    6824:	25282020 	.word	0x25282020
    6828:	34253a73 	.word	0x34253a73
    682c:	203a2964 	.word	0x203a2964
    6830:	6b20796d 	.word	0x6b20796d
    6834:	69207965 	.word	0x69207965
    6838:	64252073 	.word	0x64252073
    683c:	00000a0a 	.word	0x00000a0a
    6840:	5252455b 	.word	0x5252455b
    6844:	205d524f 	.word	0x205d524f
    6848:	25282020 	.word	0x25282020
    684c:	34253a73 	.word	0x34253a73
    6850:	203a2964 	.word	0x203a2964
    6854:	61656c70 	.word	0x61656c70
    6858:	66206573 	.word	0x66206573
    685c:	74207869 	.word	0x74207869
    6860:	61206568 	.word	0x61206568
    6864:	696c7070 	.word	0x696c7070
    6868:	69746163 	.word	0x69746163
    686c:	66206e6f 	.word	0x66206e6f
    6870:	69726261 	.word	0x69726261
    6874:	6e612063 	.word	0x6e612063
    6878:	72742064 	.word	0x72742064
    687c:	67612079 	.word	0x67612079
    6880:	0a6e6961 	.word	0x0a6e6961
    6884:	0000000a 	.word	0x0000000a
    6888:	464e495b 	.word	0x464e495b
    688c:	20205d4f 	.word	0x20205d4f
    6890:	25282020 	.word	0x25282020
    6894:	34253a73 	.word	0x34253a73
    6898:	203a2964 	.word	0x203a2964
    689c:	6920796d 	.word	0x6920796d
    68a0:	6974696e 	.word	0x6974696e
    68a4:	73206c61 	.word	0x73206c61
    68a8:	65746174 	.word	0x65746174
    68ac:	20736920 	.word	0x20736920
    68b0:	0a0a6425 	.word	0x0a0a6425
    68b4:	00000000 	.word	0x00000000
    68b8:	464e495b 	.word	0x464e495b
    68bc:	20205d4f 	.word	0x20205d4f
    68c0:	25282020 	.word	0x25282020
    68c4:	34253a73 	.word	0x34253a73
    68c8:	203a2964 	.word	0x203a2964
    68cc:	74746573 	.word	0x74746573
    68d0:	20676e69 	.word	0x20676e69
    68d4:	656d6974 	.word	0x656d6974
    68d8:	6f742072 	.word	0x6f742072
    68dc:	65786520 	.word	0x65786520
    68e0:	65747563 	.word	0x65747563
    68e4:	65766520 	.word	0x65766520
    68e8:	25207972 	.word	0x25207972
    68ec:	696d2064 	.word	0x696d2064
    68f0:	736f7263 	.word	0x736f7263
    68f4:	6e6f6365 	.word	0x6e6f6365
    68f8:	000a7364 	.word	0x000a7364
    68fc:	464e495b 	.word	0x464e495b
    6900:	20205d4f 	.word	0x20205d4f
    6904:	25282020 	.word	0x25282020
    6908:	34253a73 	.word	0x34253a73
    690c:	203a2964 	.word	0x203a2964
    6910:	72617453 	.word	0x72617453
    6914:	676e6974 	.word	0x676e6974
    6918:	00000a0a 	.word	0x00000a0a

0000691c <build_name>:
    691c:	726f6f63 616e6964 00726f74              coordinator.

00006928 <build_date>:
    6928:	5a74f27a 2f637273 61746164 6570735f     z.tZsrc/data_spe
    6938:	69666963 69746163 632e6e6f 4e495b00     cification.c.[IN
    6948:	205d4f46 28202020 253a7325 3a296434     FO]    (%s:%4d):
    6958:	52445320 64204d41 20617461 69676562      SDRAM data begi
    6968:	6120736e 64612074 73657264 25203a73     ns at address: %
    6978:	0a783830 52455b00 5d524f52 28202020     08x..[ERROR]   (
    6988:	253a7325 3a296434 67614d20 6e206369     %s:%4d): Magic n
    6998:	65626d75 73692072 636e6920 6572726f     umber is incorre
    69a8:	203a7463 78383025 455b000a 524f5252     ct: %08x..[ERROR
    69b8:	2020205d 3a732528 29643425 6556203a     ]   (%s:%4d): Ve
    69c8:	6f697372 756e206e 7265626d 20736920     rsion number is 
    69d8:	6f636e69 63657272 25203a74 0a783830     incorrect: %08x.
    69e8:	4e495b00 205d4f46 28202020 253a7325     .[INFO]    (%s:%
    69f8:	3a296434 67616d20 3d206369 38302520     4d): magic = %08
    6a08:	76202c78 69737265 3d206e6f 2e642520     x, version = %d.
    6a18:	000a6425 2f637273 756d6973 6974616c     %d..src/simulati
    6a28:	632e6e6f 4e495b00 205d4f46 28202020     on.c.[INFO]    (
    6a38:	253a7325 3a296434 61745320 6e697472     %s:%4d): Startin
    6a48:	61622067 20636973 766f7270 6e616e65     g basic provenan
    6a58:	67206563 65687461 676e6972 495b000a     ce gathering..[I
    6a68:	5d4f464e 20202020 3a732528 29643425     NFO]    (%s:%4d)
    6a78:	7572203a 6e696e6e 746f2067 20726568     : running other 
    6a88:	766f7270 6e616e65 67206563 65687461     provenance gathe
    6a98:	676e6972 495b000a 5d4f464e 20202020     ring..[INFO]    
    6aa8:	3a732528 29643425 6552203a 76696563     (%s:%4d): Receiv
    6ab8:	65206465 20746978 6e676973 202e6c61     ed exit signal. 
    6ac8:	676f7250 206d6172 706d6f63 6574656c     Program complete
    6ad8:	5b000a2e 4f464e49 2020205d 73252820     ...[INFO]    (%s
    6ae8:	6434253a 43203a29 696c6c61 7020676e     :%4d): Calling p
    6af8:	652d6572 20746978 636e7566 6e6f6974     re-exit function
    6b08:	495b000a 5d4f464e 20202020 3a732528     ..[INFO]    (%s:
    6b18:	29643425 7845203a 6e697469 5b000a67     %4d): Exiting..[
    6b28:	4f464e49 2020205d 73252820 6434253a     INFO]    (%s:%4d
    6b38:	53203a29 69747465 7420676e 72206568     ): Setting the r
    6b48:	69746e75 6f20656d 68742066 6d207369     untime of this m
    6b58:	6c65646f 206f7420 000a6425 464e495b     odel to %d..[INF
    6b68:	20205d4f 25282020 34253a73 203a2964     O]    (%s:%4d): 
    6b78:	74746553 20676e69 20656874 67616c66     Setting the flag
    6b88:	20666f20 69666e69 6574696e 6e757220      of infinite run
    6b98:	726f6620 69687420 6f6d2073 206c6564      for this model 
    6ba8:	25206f74 5b000a64 4f464e49 2020205d     to %d..[INFO]   
    6bb8:	73252820 6434253a 43203a29 696c6c61      (%s:%4d): Calli
    6bc8:	7020676e 722d6572 6d757365 75662065     ng pre-resume fu
    6bd8:	6974636e 000a6e6f 464e495b 20205d4f     nction..[INFO]  
    6be8:	25282020 34253a73 203a2964 75736552       (%s:%4d): Resu
    6bf8:	676e696d 495b000a 5d4f464e 20202020     ming..[INFO]    
    6c08:	3a732528 29643425 6f46203a 64656372     (%s:%4d): Forced
    6c18:	6f727020 616e6576 2065636e 68746167      provenance gath
    6c28:	6e697265 5b000a67 4f525245 20205d52     ering..[ERROR]  
    6c38:	73252820 6434253a 72203a29 69656365      (%s:%4d): recei
    6c48:	20646576 6b636170 77207465 20687469     ved packet with 
    6c58:	6e6b6e75 206e776f 6d6d6f63 20646e61     unknown command 
    6c68:	65646f63 0a642520 52455b00 5d524f52     code %d..[ERROR]
    6c78:	28202020 253a7325 3a296434 6e614320        (%s:%4d): Can
    6c88:	20746f6e 6f6c6c61 65746163 70647320     not allocate sdp
    6c98:	6c616320 6361626c 6e6f206b 726f7020      callback on por
    6ca8:	64252074 20736120 20737469 65726c61     t %d as its alre
    6cb8:	20796461 6e656562 6c6c6120 7461636f     ady been allocat
    6cc8:	0a2e6465 52455b00 5d524f52 28202020     ed...[ERROR]   (
    6cd8:	253a7325 3a296434 6e614320 20746f6e     %s:%4d): Cannot 
    6ce8:	646e6168 7420656c 76206761 65756c61     handle tag value
    6cf8:	6f626120 25206576 70202c64 7361656c      above %d, pleas
    6d08:	65722065 65637564 65687420 67617420     e reduce the tag
    6d18:	6c617620 61206575 726f6363 676e6964      value according
    6d28:	0a2e796c 52455b00 5d524f52 28202020     ly...[ERROR]   (
    6d38:	253a7325 3a296434 6e614320 20746f6e     %s:%4d): Cannot 
    6d48:	6f6c6c61 65746163 616d6420 61727420     allocate dma tra
    6d58:	6566736e 61632072 61626c6c 6f206b63     nsfer callback o
    6d68:	6174206e 64252067 20736120 20737469     n tag %d as its 
    6d78:	65726c61 20796461 6e656562 6c6c6120     already been all
    6d88:	7461636f 0a2e6465 52455b00 5d524f52     ocated...[ERROR]
    6d98:	28202020 253a7325 3a296434 656e5520        (%s:%4d): Une
    6da8:	63657078 20646574 6967616d 756e2063     xpected magic nu
    6db8:	7265626d 25783020 20783830 74736e69     mber 0x%08x inst
    6dc8:	20646165 3020666f 38302578 74612078     ead of 0x%08x at
    6dd8:	25783020 0a783830 52455b00 5d524f52      0x%08x..[ERROR]
    6de8:	28202020 253a7325 3a296434 65685420        (%s:%4d): The
    6df8:	50445320 6c616320 6361626c 7270206b      SDP callback pr
    6e08:	69726f69 73207974 6c756f68 65622064     iority should be
    6e18:	74657320 206f7420 756e2061 7265626d      set to a number
    6e28:	65726720 72657461 61687420 726f206e      greater than or
    6e38:	75716520 74206c61 312d206f 4920202e      equal to -1.  I
    6e48:	73692074 72756320 746e6572 7320796c     t is currently s
    6e58:	74207465 6425206f 7273000a 65722f63     et to %d..src/re
    6e68:	64726f63 2e676e69 495b0063 5d4f464e     cording.c.[INFO]
    6e78:	20202020 3a732528 29643425 4157203a         (%s:%4d): WA
    6e88:	4e494e52 72203a47 726f6365 676e6964     RNING: recording
    6e98:	61686320 6c656e6e 20752520 2074756f      channel %u out 
    6ea8:	7320666f 65636170 495b000a 5d4f464e     of space..[INFO]
    6eb8:	20202020 3a732528 29643425 4609203a         (%s:%4d): .F
    6ec8:	6c616e69 6e697369 68632067 656e6e61     inalising channe
    6ed8:	7525206c 64202d20 70706f72 69206465     l %u - dropped i
    6ee8:	726f666e 6974616d 77206e6f 656c6968     nformation while
    6ef8:	66667562 6e697265 202d2067 74617473     buffering - stat
    6f08:	6e692065 73206f66 65726f74 6e692064     e info stored in
    6f18:	52445320 000a4d41 464e495b 20205d4f      SDRAM..[INFO]  
    6f28:	25282020 34253a73 203a2964 6e694609       (%s:%4d): .Fin
    6f38:	73696c61 20676e69 6e616863 206c656e     alising channel 
    6f48:	2d207525 61747320 69206574 206f666e     %u - state info 
    6f58:	726f7473 69206465 4453206e 0a4d4152     stored in SDRAM.
    6f68:	4e495b00 205d4f46 28202020 253a7325     .[INFO]    (%s:%
    6f78:	3a296434 6f6c6320 20646573 6e616863     4d): closed chan
    6f88:	206c656e 0a2e7525 4e495b00 205d4f46     nel %u...[INFO] 
    6f98:	28202020 253a7325 3a296434 63655220        (%s:%4d): Rec
    6fa8:	6964726f 6320676e 6e6e6168 25206c65     ording channel %
    6fb8:	6f632075 6769666e 64657275 206f7420     u configured to 
    6fc8:	20657375 62207525 20657479 6f6d656d     use %u byte memo
    6fd8:	62207972 6b636f6c 61747320 6e697472     ry block startin
    6fe8:	74612067 25783020 0a783830 4e495b00     g at 0x%08x..[IN
    6ff8:	205d4f46 28202020 253a7325 3a296434     FO]    (%s:%4d):
    7008:	63655220 6964726f 6320676e 6e6e6168      Recording chann
    7018:	25206c65 656c2075 75207466 696e696e     el %u left unini
    7028:	6c616974 64657369 495b000a 5d4f464e     tialised..[INFO]
    7038:	20202020 3a732528 29643425 6552203a         (%s:%4d): Re
    7048:	64726f63 20676e69 72206425 6f696765     cording %d regio
    7058:	202c736e 6e697375 756f2067 74757074     ns, using output
    7068:	67617420 2c642520 7a697320 65622065      tag %d, size be
    7078:	65726f66 69727420 72656767 2c642520     fore trigger %d,
    7088:	6d697420 65622065 65657774 7274206e      time between tr
    7098:	65676769 25207372 5b000a64 4f525245     iggers %d..[ERRO
    70a8:	20205d52 73252820 6434253a 4e203a29     R]   (%s:%4d): N
    70b8:	6520746f 67756f6e 70732068 20656361     ot enough space 
    70c8:	61206f74 636f6c6c 20657461 6f636572     to allocate reco
    70d8:	6e696472 64612067 73657264 0a736573     rding addresses.
    70e8:	52455b00 5d524f52 28202020 253a7325     .[ERROR]   (%s:%
    70f8:	3a296434 746f4e20 6f6e6520 20686775     4d): Not enough 
    7108:	63617073 6f742065 6c6c6120 7461636f     space to allocat
    7118:	65722065 6e6f6967 7a697320 000a7365     e region sizes..
    7128:	5252455b 205d524f 25282020 34253a73     [ERROR]   (%s:%4
    7138:	203a2964 6c756f43 6f6e2064 6c612074     d): Could not al
    7148:	61636f6c 72206574 726f6365 676e6964     locate recording
    7158:	67657220 206e6f69 6f207525 75252066      region %u of %u
    7168:	74796220 000a7365 5252455b 205d524f      bytes..[ERROR] 
    7178:	25282020 34253a73 203a2964 20746f4e       (%s:%4d): Not 
    7188:	756f6e65 73206867 65636170 206f7420     enough space to 
    7198:	61657263 72206574 726f6365 676e6964     create recording
    71a8:	61686320 6c656e6e 5b000a73 4f525245      channels..[ERRO
    71b8:	20205d52 73252820 6434253a 55203a29     R]   (%s:%4d): U
    71c8:	6f6e6b6e 63206e77 6e6e6168 73206c65     nknown channel s
    71d8:	65746174 63202d20 6e6e6168 203a6c65     tate - channel: 
    71e8:	202c6425 72617473 6f702074 65746e69     %d, start pointe
    71f8:	25203a72 65202c64 7020646e 746e696f     r: %d, end point
    7208:	203a7265 202c6425 64616572 696f705f     er: %d, read_poi
    7218:	7265746e 6425203a 7277202c 5f657469     nter: %d, write_
    7228:	6e696f70 3a726574 2c642520 73616c20     pointer: %d, las
    7238:	706f2074 74617265 3d6e6f69 4145523d     t operation==REA
    7248:	25203a44 00000a64 2f637273 63726963     D: %d...src/circ
    7258:	72616c75 6675625f 2e726566 00000063     ular_buffer.c...
    7268:	5241575b 474e494e 2528205d 34253a73     [WARNING] (%s:%4
    7278:	203a2964 75716552 65747365 69732064     d): Requested si
    7288:	6f20657a 75252066 73617720 756f7220     ze of %u was rou
    7298:	6465646e 20707520 25206f74 00000a75     nded up to %u...
    72a8:	5252455b 205d524f 25282020 34253a73     [ERROR]   (%s:%4
    72b8:	203a2964 6e6e6143 6120746f 636f6c6c     d): Cannot alloc
    72c8:	20657461 63617073 6f662065 75622072     ate space for bu
    72d8:	72656666 72747320 75746375 000a6572     ffer structure..
    72e8:	5252455b 205d524f 25282020 34253a73     [ERROR]   (%s:%4
    72f8:	203a2964 6e6e6143 6120746f 636f6c6c     d): Cannot alloc
    7308:	20657461 63617073 6f662065 75622072     ate space for bu
    7318:	72656666 206e6920 63726963 72616c75     ffer in circular
    7328:	66756220 0a726566 00000000 0000005b      buffer.....[...
    7338:	00007525 0000202c 53000a5d 2f4b5241     %u.., ..]..SARK/
    7348:	4e697053 656b614e 2e330072 00312e31     SpiNNaker.3.1.1.

00007358 <hex>:
    7358:	33323130 37363534 62613938 66656463     0123456789abcdef
    7368:	5b090900 5f697061 75626564 52205d67     ...[api_debug] R
    7378:	6d205254 20202063 61702020 74656b63     TR mc     packet
    7388:	25203a73 09000a64 70615b09 65645f69     s: %d....[api_de
    7398:	5d677562 52545220 64706420 20636d20     bug] RTR dpd mc 
    73a8:	6b636170 3a737465 0a642520 5b090900     packets: %d....[
    73b8:	5f697061 75626564 49205d67 74205253     api_debug] ISR t
    73c8:	776f7268 6170206e 74656b63 25203a73     hrown packets: %
    73d8:	09000a64 70615b09 65645f69 5d677562     d....[api_debug]
    73e8:	52534920 72687420 206e776f 70205246      ISR thrown FR p
    73f8:	656b6361 203a7374 000a6425 615b0909     ackets: %d....[a
    7408:	645f6970 67756265 4d44205d 75622041     pi_debug] DMA bu
    7418:	73747372 2520203a 09000a64 70615b09     rsts:  %d....[ap
    7428:	61775f69 205d6e72 6e726177 3a676e69     i_warn] warning:
    7438:	73617420 7571206b 20657565 6c6c7566      task queue full
    7448:	75252820 09000a29 70615b09 61775f69      (%u)....[api_wa
    7458:	205d6e72 6e726177 3a676e69 414d4420     rn] warning: DMA
    7468:	65757120 66206575 206c6c75 29752528      queue full (%u)
    7478:	0909000a 6970615b 7261775f 77205d6e     ....[api_warn] w
    7488:	696e7261 203a676e 6b636170 71207465     arning: packet q
    7498:	65756575 6c756620 2528206c 000a2975     ueue full (%u)..
    74a8:	33323130 37363534 62613938 66656463     0123456789abcdef
    74b8:	6a696867 6e6d6c6b 7271706f 76757473     ghijklmnopqrstuv
    74c8:	7a797877 00000000                       wxyz....
